Certificate:
    Data:
        Version: 3 (0x2)
        Serial Number: 2 (0x2)
        Signature Algorithm: sha256WithRSAEncryption
        Issuer: C=US, ST=Maryland, L=Baltimore, O=DFSP Server CA, OU=Payments, CN=dfspserverca/emailAddress=dfspserverca@example.com
        Validity
            Not Before: Feb  8 18:01:17 2024 GMT
            Not After : Nov  4 18:01:17 2026 GMT
        Subject: CN=payee-sdk-scheme-adapter-api-svc
        Subject Public Key Info:
            Public Key Algorithm: rsaEncryption
                Public-Key: (4096 bit)
                Modulus:
                    00:c2:1c:5f:e8:97:65:ea:f0:45:e8:57:24:04:16:
                    5e:93:14:fc:04:d9:78:b4:0a:91:44:b4:b8:26:84:
                    19:22:a6:b3:89:52:05:f9:ae:26:78:f0:8d:a5:4c:
                    e3:36:04:b4:da:9d:ec:f6:09:32:8a:53:44:18:f2:
                    d2:eb:5c:5d:be:6d:4d:78:0e:f3:77:05:a7:39:b6:
                    c7:b8:39:a6:43:cd:89:4a:4a:d8:a6:61:57:b3:fd:
                    ef:b0:9b:0c:25:7f:da:57:d3:41:0a:cc:c5:43:f4:
                    e9:10:75:d6:80:22:20:60:8a:4a:a8:c3:60:1c:a3:
                    5d:78:59:91:eb:06:fa:0f:20:1b:07:3b:fb:92:a6:
                    bb:ac:0e:47:68:70:fe:3b:15:f3:ff:6c:7b:b7:1c:
                    a6:31:fb:38:b4:da:39:ef:42:c2:ce:fe:5b:4e:66:
                    06:f1:9d:1a:e1:9b:dd:60:3b:c2:9f:e9:29:b9:39:
                    f6:d2:7c:c0:65:52:db:04:51:f6:ad:f9:ac:a4:70:
                    e7:a2:b5:83:2c:2c:22:c5:8c:d1:bf:e8:73:87:76:
                    f4:98:9c:65:dc:ae:7b:6f:b3:41:b3:eb:e3:db:e2:
                    37:1d:6d:9a:ed:0c:fb:a3:ab:60:f1:6a:ac:1c:39:
                    85:b7:61:8d:31:87:45:1c:16:92:b5:5f:01:bb:ef:
                    5b:00:3f:2e:92:c4:d7:b6:17:86:90:d0:e2:b9:05:
                    20:ec:41:ce:70:a6:2d:d3:df:09:f6:76:3d:f4:6e:
                    aa:eb:c3:a6:6c:a6:bd:74:ab:30:18:6f:19:58:a4:
                    5c:43:f7:f5:4e:10:fb:42:b6:6b:78:c4:fd:a3:ef:
                    ad:73:51:e1:98:b8:f1:33:77:c8:cf:ae:19:16:8f:
                    e7:7c:0d:51:96:0b:69:02:8e:ed:3e:30:5e:ef:2a:
                    62:ea:a5:95:4b:b6:57:01:8a:f8:10:e3:b3:1c:e3:
                    1d:e0:e2:71:55:f6:9c:59:e5:fa:15:13:4a:cb:1d:
                    a7:14:c2:64:5d:5c:e4:76:2f:15:6e:c5:28:92:7f:
                    0d:c6:ca:09:85:f5:b6:88:f2:04:d1:97:18:d7:fb:
                    08:6c:c6:91:27:f9:8d:5a:56:95:31:5f:49:c6:3b:
                    33:22:32:77:18:4b:48:11:3b:67:f8:4a:b0:93:78:
                    92:82:a1:9c:63:2b:cb:24:18:52:6f:14:25:ff:4b:
                    e4:7c:04:46:fe:47:a9:c1:7b:c3:e2:c1:00:57:51:
                    08:73:a7:5a:75:87:b6:ed:21:1c:cb:5b:67:27:f4:
                    65:a2:98:c3:bd:00:06:af:2c:4b:e5:eb:80:b7:d5:
                    2b:9b:8e:55:8f:ca:7a:d7:7a:83:fd:5c:c8:d5:5d:
                    87:3b:77
                Exponent: 65537 (0x10001)
        X509v3 extensions:
            X509v3 Subject Key Identifier: 
                50:4F:6E:B3:8B:8E:FF:AC:2B:C6:EE:6E:D0:59:A3:6C:23:B5:F3:37
            X509v3 Authority Key Identifier: 
                C1:0E:C8:6E:3C:89:5B:E8:73:FC:6F:72:FF:95:52:D2:E0:3D:2F:B4
            X509v3 Basic Constraints: 
                CA:FALSE
            X509v3 Key Usage: 
                Digital Signature, Key Encipherment
            X509v3 Extended Key Usage: 
                TLS Web Server Authentication, TLS Web Client Authentication, Code Signing, E-mail Protection
            X509v3 Subject Alternative Name: 
                DNS:payee-sdk-scheme-adapter-api-svc
            Netscape Comment: 
                OpenSSL Generated Certificate
    Signature Algorithm: sha256WithRSAEncryption
    Signature Value:
        18:e9:01:05:d7:d3:4f:da:18:57:6a:ed:b1:5a:b9:01:7b:a4:
        a8:f5:5e:b9:20:a9:a5:4c:ba:69:da:60:7c:a7:7d:9a:38:6f:
        82:6d:ef:0f:bc:1a:25:2c:60:c9:6b:92:19:e3:0a:00:d0:02:
        fa:79:79:04:e4:88:8e:da:5e:44:24:cc:8c:b4:7e:61:c5:1d:
        93:2b:b8:b5:63:b5:db:2e:fb:cf:7b:8f:9f:93:79:cf:e5:be:
        63:d8:23:c0:46:70:3d:b7:2d:83:af:b3:86:90:f5:28:b7:5b:
        11:5a:e1:15:5e:b7:05:68:e7:ad:bb:1a:65:b0:9f:f7:53:d6:
        48:71:19:ba:b9:4b:87:7c:4c:01:22:c7:74:cb:8e:1f:01:e8:
        b7:7e:db:6c:c4:8e:13:77:a2:8d:c2:a5:47:a1:a5:08:16:c7:
        3b:eb:94:00:82:11:cf:a9:b8:52:b3:49:1b:74:6e:6f:85:0a:
        90:0c:98:5c:d9:29:03:b7:ff:3f:34:42:09:bb:74:40:7c:8d:
        9f:c0:e0:d0:c7:bd:84:aa:76:9a:2e:56:2b:16:94:a2:3c:35:
        20:41:f0:19:ba:52:3e:cc:46:3c:8b:67:d3:0d:77:e9:a6:57:
        1a:63:fa:b0:c5:3f:f0:1e:16:a4:3d:1d:60:43:91:c1:05:1f:
        70:83:94:e1:33:be:fd:3f:e4:d1:d8:22:4f:c3:c5:83:15:5b:
        23:10:0e:a0:c2:c5:70:43:50:42:6f:ae:82:ea:53:cf:a1:8e:
        f3:4b:c5:2b:cd:15:05:1e:ee:8d:0b:04:e9:5a:08:cc:d3:a4:
        f4:eb:05:62:95:7a:1e:1d:a2:d4:83:16:92:7f:99:1b:e0:49:
        6d:70:0a:e2:dc:80:1e:3d:c9:d8:f4:28:52:66:4b:ec:90:89:
        43:b7:9a:c0:69:a0:89:35:dc:92:be:da:1c:59:42:e8:fe:88:
        d6:41:34:e1:11:8f:bd:e9:5c:f2:d6:53:e0:4d:f7:82:8c:33:
        82:a8:16:77:28:32:63:73:7b:a5:47:61:98:f4:2d:61:20:c2:
        8f:ed:3f:68:a3:78:71:fb:88:33:67:aa:1a:d9:d7:28:39:5c:
        60:27:61:ed:39:da:a2:fb:41:01:c1:bf:fd:e0:38:54:41:7e:
        75:92:b6:1c:25:8a:15:fd:03:b2:d0:69:81:a2:fc:46:2c:c0:
        a9:fc:c2:4a:a9:d9:e1:d2:a5:83:93:44:3a:4d:ae:f6:5d:6e:
        fb:fa:d6:73:d9:fe:36:2a:69:e7:9e:bf:66:59:2a:49:c8:5a:
        9a:4e:12:3e:56:c5:b1:e5:84:bb:45:5e:57:e8:b5:1b:e0:0a:
        13:91:31:be:d3:42:ee:ce
-----BEGIN CERTIFICATE-----
MIIGMTCCBBmgAwIBAgIBAjANBgkqhkiG9w0BAQsFADCBoDELMAkGA1UEBhMCVVMx
ETAPBgNVBAgMCE1hcnlsYW5kMRIwEAYDVQQHDAlCYWx0aW1vcmUxFzAVBgNVBAoM
DkRGU1AgU2VydmVyIENBMREwDwYDVQQLDAhQYXltZW50czEVMBMGA1UEAwwMZGZz
cHNlcnZlcmNhMScwJQYJKoZIhvcNAQkBFhhkZnNwc2VydmVyY2FAZXhhbXBsZS5j
b20wHhcNMjQwMjA4MTgwMTE3WhcNMjYxMTA0MTgwMTE3WjArMSkwJwYDVQQDDCBw
YXllZS1zZGstc2NoZW1lLWFkYXB0ZXItYXBpLXN2YzCCAiIwDQYJKoZIhvcNAQEB
BQADggIPADCCAgoCggIBAMIcX+iXZerwRehXJAQWXpMU/ATZeLQKkUS0uCaEGSKm
s4lSBfmuJnjwjaVM4zYEtNqd7PYJMopTRBjy0utcXb5tTXgO83cFpzm2x7g5pkPN
iUpK2KZhV7P977CbDCV/2lfTQQrMxUP06RB11oAiIGCKSqjDYByjXXhZkesG+g8g
Gwc7+5Kmu6wOR2hw/jsV8/9se7ccpjH7OLTaOe9Cws7+W05mBvGdGuGb3WA7wp/p
Kbk59tJ8wGVS2wRR9q35rKRw56K1gywsIsWM0b/oc4d29JicZdyue2+zQbPr49vi
Nx1tmu0M+6OrYPFqrBw5hbdhjTGHRRwWkrVfAbvvWwA/LpLE17YXhpDQ4rkFIOxB
znCmLdPfCfZ2PfRuquvDpmymvXSrMBhvGVikXEP39U4Q+0K2a3jE/aPvrXNR4Zi4
8TN3yM+uGRaP53wNUZYLaQKO7T4wXu8qYuqllUu2VwGK+BDjsxzjHeDicVX2nFnl
+hUTSssdpxTCZF1c5HYvFW7FKJJ/DcbKCYX1tojyBNGXGNf7CGzGkSf5jVpWlTFf
ScY7MyIydxhLSBE7Z/hKsJN4koKhnGMryyQYUm8UJf9L5HwERv5HqcF7w+LBAFdR
CHOnWnWHtu0hHMtbZyf0ZaKYw70ABq8sS+XrgLfVK5uOVY/Ketd6g/1cyNVdhzt3
AgMBAAGjgekwgeYwHQYDVR0OBBYEFFBPbrOLjv+sK8bubtBZo2wjtfM3MB8GA1Ud
IwQYMBaAFMEOyG48iVvoc/xvcv+VUtLgPS+0MAkGA1UdEwQCMAAwCwYDVR0PBAQD
AgWgMDEGA1UdJQQqMCgGCCsGAQUFBwMBBggrBgEFBQcDAgYIKwYBBQUHAwMGCCsG
AQUFBwMEMCsGA1UdEQQkMCKCIHBheWVlLXNkay1zY2hlbWUtYWRhcHRlci1hcGkt
c3ZjMCwGCWCGSAGG+EIBDQQfFh1PcGVuU1NMIEdlbmVyYXRlZCBDZXJ0aWZpY2F0
ZTANBgkqhkiG9w0BAQsFAAOCAgEAGOkBBdfTT9oYV2rtsVq5AXukqPVeuSCppUy6
adpgfKd9mjhvgm3vD7waJSxgyWuSGeMKANAC+nl5BOSIjtpeRCTMjLR+YcUdkyu4
tWO12y77z3uPn5N5z+W+Y9gjwEZwPbctg6+zhpD1KLdbEVrhFV63BWjnrbsaZbCf
91PWSHEZurlLh3xMASLHdMuOHwHot37bbMSOE3eijcKlR6GlCBbHO+uUAIIRz6m4
UrNJG3Rub4UKkAyYXNkpA7f/PzRCCbt0QHyNn8Dg0Me9hKp2mi5WKxaUojw1IEHw
GbpSPsxGPItn0w136aZXGmP6sMU/8B4WpD0dYEORwQUfcIOU4TO+/T/k0dgiT8PF
gxVbIxAOoMLFcENQQm+ugupTz6GO80vFK80VBR7ujQsE6VoIzNOk9OsFYpV6Hh2i
1IMWkn+ZG+BJbXAK4tyAHj3J2PQoUmZL7JCJQ7eawGmgiTXckr7aHFlC6P6I1kE0
4RGPvelc8tZT4E33gowzgqgWdygyY3N7pUdhmPQtYSDCj+0/aKN4cfuIM2eqGtnX
KDlcYCdh7TnaovtBAcG//eA4VEF+dZK2HCWKFf0DstBpgaL8RizAqfzCSqnZ4dKl
g5NEOk2u9l1u+/rWc9n+Nipp556/ZlkqSchamk4SPlbFseWEu0VeV+i1G+AKE5Ex
vtNC7s4=
-----END CERTIFICATE-----
