Certificate:
    Data:
        Version: 3 (0x2)
        Serial Number: 3 (0x3)
        Signature Algorithm: sha256WithRSAEncryption
        Issuer: C=US, ST=Maryland, L=Baltimore, O=DFSP Server CA, OU=Payments, CN=dfspserverca/emailAddress=dfspserverca@example.com
        Validity
            Not Before: Feb  8 18:50:42 2024 GMT
            Not After : Nov  4 18:50:42 2026 GMT
        Subject: CN=payee-sdk-scheme-adapter-api-svc
        Subject Public Key Info:
            Public Key Algorithm: rsaEncryption
                Public-Key: (4096 bit)
                Modulus:
                    00:c1:28:87:d7:59:22:1a:60:33:70:7d:61:62:00:
                    1e:00:bd:b9:4e:9b:af:f8:a2:8e:08:e1:cc:b4:e0:
                    2b:fa:f9:81:db:df:18:0b:5c:87:a4:49:76:d8:3a:
                    99:92:5b:8c:96:bb:2c:37:8d:fb:19:88:4c:dc:de:
                    80:47:4c:2e:6f:98:3c:93:28:06:24:9a:77:6b:ca:
                    31:8a:a2:09:ca:9b:65:2d:e4:f9:c7:a5:0c:aa:84:
                    fb:0c:c8:0a:11:4d:21:6d:ac:fc:95:21:5e:a8:61:
                    c5:34:34:cf:f7:5b:fb:0f:a2:54:da:96:4a:46:13:
                    aa:03:64:bc:9c:e9:23:00:3a:95:69:29:23:fe:5b:
                    85:dc:a6:95:bf:ee:bb:f9:fe:3c:fc:c2:7f:88:b0:
                    a2:8b:26:77:fe:15:24:12:87:c5:57:3e:0b:c3:b9:
                    36:0a:66:b1:2f:56:a1:be:94:04:6a:e6:2e:98:7e:
                    cd:20:5c:be:1b:41:68:c1:cd:7c:d7:12:6e:b9:af:
                    df:ab:a1:5c:e8:cc:8d:03:16:1b:8d:80:f7:11:35:
                    a6:d6:fb:e4:e4:5b:fe:76:71:78:b8:7c:4d:81:c3:
                    ee:9e:e4:22:a2:70:1e:c1:07:3f:84:1b:0f:76:f1:
                    98:53:7a:e8:13:df:a5:f6:7c:a1:6e:05:b2:2f:c5:
                    2c:d9:f9:5e:f8:f9:fa:41:ff:e5:ae:af:db:85:4f:
                    a5:c7:42:07:13:05:50:a7:ff:30:79:dc:1a:84:39:
                    60:6e:1d:9f:45:19:c7:af:b4:70:42:c1:70:84:ac:
                    86:10:9a:e1:21:aa:93:21:47:1b:ae:93:00:74:2f:
                    39:6a:4d:4f:62:42:48:dc:eb:0b:f9:27:36:0c:4a:
                    ea:2a:a1:57:ce:30:7d:3e:36:72:fa:fb:19:7a:c6:
                    99:fa:1b:a0:a8:8f:0b:08:3b:59:58:65:4f:e5:f0:
                    07:1c:5d:83:bc:2f:7a:c1:26:e8:5a:f1:f3:25:fc:
                    38:d0:4c:40:dd:cb:46:d7:30:b1:ba:7a:6b:da:0e:
                    fb:57:ca:c7:d7:06:dd:3c:ed:f0:be:fb:52:bd:27:
                    e5:99:7e:68:ea:bf:7e:dc:36:3e:15:8b:93:0f:48:
                    64:9c:f6:cd:18:a4:76:ac:ae:72:a8:7d:04:02:28:
                    94:95:19:05:4d:87:ab:07:74:ca:c7:29:a8:a3:88:
                    2b:57:c9:01:47:4b:65:94:1b:be:51:2d:e0:00:3a:
                    1b:77:92:94:79:f2:4f:17:af:8f:59:86:8a:05:a4:
                    3a:15:61:47:ce:ec:a8:33:a7:13:1e:a8:a7:c5:48:
                    59:d8:07:59:ae:8d:db:44:d1:3e:ad:1d:23:df:03:
                    a8:31:bd
                Exponent: 65537 (0x10001)
        X509v3 extensions:
            X509v3 Subject Key Identifier: 
                0B:18:88:54:03:DC:7E:EB:F1:65:A0:A3:8C:22:DC:0C:6D:22:29:44
            X509v3 Authority Key Identifier: 
                C1:0E:C8:6E:3C:89:5B:E8:73:FC:6F:72:FF:95:52:D2:E0:3D:2F:B4
            X509v3 Basic Constraints: 
                CA:FALSE
            X509v3 Key Usage: 
                Digital Signature, Key Encipherment
            X509v3 Extended Key Usage: 
                TLS Web Server Authentication, TLS Web Client Authentication, Code Signing, E-mail Protection
            X509v3 Subject Alternative Name: 
                DNS:payee-sdk-scheme-adapter-api-svc, DNS:payer-sdk-scheme-adapter-api-svc
            Netscape Comment: 
                OpenSSL Generated Certificate
    Signature Algorithm: sha256WithRSAEncryption
    Signature Value:
        9b:4a:81:be:ec:d4:d2:25:03:45:a2:1f:d0:09:a5:60:7a:28:
        6b:36:8d:26:d2:77:f8:f9:30:1d:75:06:2f:d4:8e:87:be:3e:
        5c:de:10:2b:04:a0:63:09:70:67:a8:c1:c0:4f:84:65:44:80:
        ff:94:13:5f:0d:7e:67:63:d6:86:66:86:38:77:c5:cd:08:e8:
        5d:4e:c6:16:fa:53:e6:0e:0a:c5:38:2c:e2:5d:55:11:23:a5:
        5f:8c:1e:8f:84:c1:eb:b5:ab:58:64:c5:fd:47:4f:72:b6:9a:
        b9:88:e7:81:12:f2:ff:4f:cc:7f:2f:ce:ff:82:d4:59:4b:de:
        b8:7f:9e:59:09:ec:68:c9:85:80:aa:cb:c5:c1:1e:db:5a:aa:
        87:1c:64:ac:15:ed:aa:a1:c5:d3:17:ad:90:e7:3f:d1:8c:8a:
        4a:f4:c0:48:d3:1a:ef:4a:df:3b:96:1c:97:36:8c:39:e0:e7:
        fb:7b:fb:01:6a:5a:90:40:4c:a6:f6:0d:12:fc:60:3a:70:a5:
        b6:0d:7e:3d:8c:79:33:14:54:1e:95:64:cf:82:16:7d:59:b8:
        68:38:2c:a1:d5:75:0b:25:f6:3a:18:23:26:12:96:be:02:b2:
        b6:8c:02:31:3d:8d:0a:db:1b:6b:25:06:fb:d6:49:22:dd:35:
        26:71:da:6d:c3:47:50:17:37:cc:32:84:b6:cb:85:d8:75:4c:
        75:a9:15:30:51:e9:fa:d1:d5:6b:a3:37:a5:db:d0:80:ba:1f:
        9b:6d:b0:7b:2f:08:09:97:1a:48:31:4c:46:8c:81:4f:f7:7e:
        17:75:8f:fa:cd:e7:90:8b:56:61:1c:0a:fa:c9:94:05:f2:73:
        a7:c5:1f:88:6c:26:a3:cb:7c:95:65:55:7d:ae:8d:62:96:b7:
        8b:e2:c3:b7:97:92:d9:06:2a:80:6e:43:fe:15:d7:ad:0c:5c:
        92:83:11:fc:54:02:5b:04:6f:f9:17:84:31:56:8f:bb:82:af:
        59:3c:6d:1a:74:fc:03:5c:b2:d3:f8:c0:9a:ab:f3:e6:29:9f:
        e2:af:98:6c:43:9b:f1:11:0c:3e:1a:cc:f2:d8:54:d7:34:5c:
        45:1b:d6:83:7b:9f:56:14:17:d5:b3:87:ef:9d:aa:ab:b7:67:
        73:02:20:85:6c:1c:3d:55:db:4f:f3:62:97:2e:90:c7:07:6a:
        2d:94:ae:05:c8:ef:d3:21:50:25:9e:80:c9:a1:55:ce:9b:68:
        67:27:a6:5f:5f:d9:5b:4c:ab:1a:0b:93:13:23:18:3e:ad:3c:
        fd:ab:aa:2b:f4:58:93:4b:ca:a6:27:be:7a:6e:ca:27:6f:80:
        3d:4c:67:d8:7a:6a:5c:3d
-----BEGIN CERTIFICATE-----
MIIGVTCCBD2gAwIBAgIBAzANBgkqhkiG9w0BAQsFADCBoDELMAkGA1UEBhMCVVMx
ETAPBgNVBAgMCE1hcnlsYW5kMRIwEAYDVQQHDAlCYWx0aW1vcmUxFzAVBgNVBAoM
DkRGU1AgU2VydmVyIENBMREwDwYDVQQLDAhQYXltZW50czEVMBMGA1UEAwwMZGZz
cHNlcnZlcmNhMScwJQYJKoZIhvcNAQkBFhhkZnNwc2VydmVyY2FAZXhhbXBsZS5j
b20wHhcNMjQwMjA4MTg1MDQyWhcNMjYxMTA0MTg1MDQyWjArMSkwJwYDVQQDDCBw
YXllZS1zZGstc2NoZW1lLWFkYXB0ZXItYXBpLXN2YzCCAiIwDQYJKoZIhvcNAQEB
BQADggIPADCCAgoCggIBAMEoh9dZIhpgM3B9YWIAHgC9uU6br/iijgjhzLTgK/r5
gdvfGAtch6RJdtg6mZJbjJa7LDeN+xmITNzegEdMLm+YPJMoBiSad2vKMYqiCcqb
ZS3k+celDKqE+wzIChFNIW2s/JUhXqhhxTQ0z/db+w+iVNqWSkYTqgNkvJzpIwA6
lWkpI/5bhdymlb/uu/n+PPzCf4iwoosmd/4VJBKHxVc+C8O5NgpmsS9Wob6UBGrm
Lph+zSBcvhtBaMHNfNcSbrmv36uhXOjMjQMWG42A9xE1ptb75ORb/nZxeLh8TYHD
7p7kIqJwHsEHP4QbD3bxmFN66BPfpfZ8oW4Fsi/FLNn5Xvj5+kH/5a6v24VPpcdC
BxMFUKf/MHncGoQ5YG4dn0UZx6+0cELBcISshhCa4SGqkyFHG66TAHQvOWpNT2JC
SNzrC/knNgxK6iqhV84wfT42cvr7GXrGmfoboKiPCwg7WVhlT+XwBxxdg7wvesEm
6Frx8yX8ONBMQN3LRtcwsbp6a9oO+1fKx9cG3Tzt8L77Ur0n5Zl+aOq/ftw2PhWL
kw9IZJz2zRikdqyucqh9BAIolJUZBU2Hqwd0yscpqKOIK1fJAUdLZZQbvlEt4AA6
G3eSlHnyTxevj1mGigWkOhVhR87sqDOnEx6op8VIWdgHWa6N20TRPq0dI98DqDG9
AgMBAAGjggEMMIIBCDAdBgNVHQ4EFgQUCxiIVAPcfuvxZaCjjCLcDG0iKUQwHwYD
VR0jBBgwFoAUwQ7IbjyJW+hz/G9y/5VS0uA9L7QwCQYDVR0TBAIwADALBgNVHQ8E
BAMCBaAwMQYDVR0lBCowKAYIKwYBBQUHAwEGCCsGAQUFBwMCBggrBgEFBQcDAwYI
KwYBBQUHAwQwTQYDVR0RBEYwRIIgcGF5ZWUtc2RrLXNjaGVtZS1hZGFwdGVyLWFw
aS1zdmOCIHBheWVyLXNkay1zY2hlbWUtYWRhcHRlci1hcGktc3ZjMCwGCWCGSAGG
+EIBDQQfFh1PcGVuU1NMIEdlbmVyYXRlZCBDZXJ0aWZpY2F0ZTANBgkqhkiG9w0B
AQsFAAOCAgEAm0qBvuzU0iUDRaIf0AmlYHooazaNJtJ3+PkwHXUGL9SOh74+XN4Q
KwSgYwlwZ6jBwE+EZUSA/5QTXw1+Z2PWhmaGOHfFzQjoXU7GFvpT5g4KxTgs4l1V
ESOlX4wej4TB67WrWGTF/UdPcraauYjngRLy/0/Mfy/O/4LUWUveuH+eWQnsaMmF
gKrLxcEe21qqhxxkrBXtqqHF0xetkOc/0YyKSvTASNMa70rfO5YclzaMOeDn+3v7
AWpakEBMpvYNEvxgOnCltg1+PYx5MxRUHpVkz4IWfVm4aDgsodV1CyX2OhgjJhKW
vgKytowCMT2NCtsbayUG+9ZJIt01JnHabcNHUBc3zDKEtsuF2HVMdakVMFHp+tHV
a6M3pdvQgLofm22wey8ICZcaSDFMRoyBT/d+F3WP+s3nkItWYRwK+smUBfJzp8Uf
iGwmo8t8lWVVfa6NYpa3i+LDt5eS2QYqgG5D/hXXrQxckoMR/FQCWwRv+ReEMVaP
u4KvWTxtGnT8A1yy0/jAmqvz5imf4q+YbEOb8REMPhrM8thU1zRcRRvWg3ufVhQX
1bOH752qq7dncwIghWwcPVXbT/Nily6QxwdqLZSuBcjv0yFQJZ6AyaFVzptoZyem
X1/ZW0yrGguTEyMYPq08/auqK/RYk0vKpie+em7KJ2+APUxn2HpqXD0=
-----END CERTIFICATE-----
