Certificate:
    Data:
        Version: 3 (0x2)
        Serial Number: 1 (0x1)
        Signature Algorithm: sha256WithRSAEncryption
        Issuer: C=US, ST=Maryland, L=Baltimore, O=DFSP Client CA, OU=Payments, CN=dfspclientca/emailAddress=dfspserverca@example.com
        Validity
            Not Before: Feb  8 17:56:19 2024 GMT
            Not After : Nov  4 17:56:19 2026 GMT
        Subject: C=US, ST=MD, L=Baltimore, O=DFSP Client, OU=Payments, CN=dfspclient
        Subject Public Key Info:
            Public Key Algorithm: rsaEncryption
                Public-Key: (4096 bit)
                Modulus:
                    00:8d:f0:0b:a6:c7:f7:ec:39:09:c2:7c:3f:f8:84:
                    23:02:5c:4d:1c:5b:78:dc:04:86:f2:e1:e3:6c:d4:
                    4f:77:9d:0e:9e:28:cf:81:68:da:f9:97:8d:c9:e1:
                    7e:cb:8c:b9:9e:4a:a4:ac:8d:5f:56:6a:bc:78:a0:
                    99:da:1e:4a:86:5b:4e:9c:9d:af:06:4f:27:3b:dd:
                    eb:55:2c:75:da:42:05:5a:ce:49:f7:3a:46:69:e5:
                    84:8f:23:17:6b:9e:3d:74:ab:cf:ca:54:f4:2c:6f:
                    73:d5:5b:4c:99:4b:83:b7:99:d9:27:b1:07:28:c6:
                    26:fe:e5:cb:74:5d:f9:56:25:70:17:35:d1:b6:21:
                    db:b7:7e:32:48:69:0d:ba:b0:7d:22:76:b2:8c:8d:
                    ac:78:55:c7:e6:0a:1e:f1:75:24:78:83:a2:38:31:
                    96:34:41:6e:fa:91:47:3c:fb:60:e3:e5:60:33:d1:
                    37:97:21:0c:da:b9:0f:0e:e4:01:e0:e2:dc:96:a5:
                    37:3a:ce:1c:c4:5a:5f:cf:82:e1:73:e0:cc:58:60:
                    eb:9f:22:7c:6d:a5:5d:1c:e5:f2:58:43:68:ac:2f:
                    23:1b:50:e0:aa:45:69:b0:37:b0:5a:77:01:32:4b:
                    ce:08:bf:ba:aa:81:9a:c1:be:e7:9a:18:85:76:f2:
                    48:6a:aa:f2:59:a9:3e:79:45:a9:f0:82:dc:15:3d:
                    39:62:31:98:c2:95:53:79:37:11:99:b6:66:9d:7a:
                    7f:da:15:69:9d:8c:dc:d6:10:85:9f:a0:39:39:66:
                    63:db:df:76:1e:d5:5c:85:e2:a7:09:9d:04:4f:a3:
                    10:09:cc:38:11:4d:78:82:55:c8:db:8f:52:c7:6e:
                    53:15:e8:ae:8d:89:5a:ca:fe:2f:64:50:6b:5d:22:
                    c4:f2:f8:cb:af:fb:16:8a:c3:98:3b:3f:66:d4:70:
                    0b:d2:f3:97:ff:47:2a:83:f9:5b:6d:58:f7:47:72:
                    16:31:28:73:55:2e:16:c9:d3:97:c5:7a:5e:1c:c5:
                    ef:9b:e7:e0:fc:f2:99:d6:27:0b:64:e8:e5:c2:aa:
                    cd:03:09:23:57:15:2a:39:1c:e9:42:c5:38:d2:39:
                    b0:6e:5a:dc:64:66:b5:be:b7:64:cd:17:db:19:5b:
                    74:1d:05:7b:cf:66:5d:85:98:97:1f:90:6c:c9:d7:
                    1b:9f:7a:b9:85:f0:24:23:9e:1d:c1:f3:a8:e8:0f:
                    6b:f8:0e:50:40:7b:13:2e:d6:dc:9c:2e:21:ae:e1:
                    71:7a:b4:3f:0c:4f:4e:03:a9:aa:e9:02:d9:50:9e:
                    eb:41:21:0f:f9:fb:fa:c1:f1:8e:ed:d8:37:09:36:
                    c3:18:01
                Exponent: 65537 (0x10001)
        X509v3 extensions:
            X509v3 Subject Key Identifier: 
                5A:25:E9:3F:43:D8:1F:8E:3E:7A:11:0B:FA:65:E9:1D:2D:CA:7E:3B
            X509v3 Authority Key Identifier: 
                94:32:A9:A9:05:3F:25:6F:4C:DF:AF:64:5B:6C:F7:CD:1F:BD:81:03
            X509v3 Basic Constraints: 
                CA:FALSE
            X509v3 Key Usage: 
                Digital Signature, Key Encipherment
            X509v3 Extended Key Usage: 
                TLS Web Server Authentication, TLS Web Client Authentication, Code Signing, E-mail Protection
            X509v3 Subject Alternative Name: 
                DNS:localhost
            Netscape Comment: 
                OpenSSL Generated Certificate
    Signature Algorithm: sha256WithRSAEncryption
    Signature Value:
        b8:9b:47:de:79:68:99:19:f6:ef:d6:88:85:67:3e:ee:b2:a2:
        14:16:57:ac:1d:39:43:4d:b3:e2:4c:93:2f:55:d0:fa:aa:d1:
        5e:77:f8:96:88:92:27:c0:00:68:c7:9b:0e:6e:5f:33:12:0f:
        66:dc:cd:5b:29:4a:2f:2e:ae:04:99:c7:45:63:99:f8:eb:8b:
        d9:a5:6a:ef:89:16:e1:11:72:44:60:6f:02:66:da:c5:e6:ab:
        60:83:b9:34:cd:1e:4f:d4:8f:85:5c:50:cc:d7:f8:04:70:59:
        87:0b:4e:59:bf:e0:5d:07:26:b7:56:00:be:bd:29:cb:be:f5:
        fb:d5:10:77:0f:4e:ce:4d:72:42:5d:df:1a:3f:61:d3:9d:26:
        4e:de:b0:96:38:a6:9f:9a:4a:c5:08:c6:cb:60:db:e2:2f:66:
        b3:da:93:54:d1:b5:c8:a6:36:3e:65:3b:7d:39:a8:dd:c6:49:
        5e:0f:3c:27:12:f4:92:3d:c9:9c:dc:c7:f7:54:4f:af:74:ae:
        0c:33:74:04:37:be:b2:30:a7:65:36:98:28:f1:9c:fa:22:bf:
        24:19:13:b0:5e:67:3d:08:d1:3a:e7:73:23:ac:c3:ad:17:da:
        9c:29:ef:c3:f5:b4:65:13:73:3b:ed:b1:b4:0b:67:a9:57:ae:
        f7:9c:ac:b9:f4:fc:8e:30:af:86:a4:21:80:04:1c:f2:d1:36:
        68:1d:89:48:a1:64:d4:1f:38:35:1f:9a:84:c5:6b:4f:1a:10:
        24:6b:94:a5:b9:b2:8c:3e:a0:f5:fa:0b:65:b8:34:33:6e:66:
        fb:5d:16:b5:0c:51:ed:a2:67:2a:2b:4a:93:14:e9:06:ff:5c:
        cc:99:21:61:78:7c:54:e2:38:95:bc:4e:96:fb:cc:f5:ba:41:
        9f:9b:30:8b:62:59:2b:97:94:fb:f1:d9:0d:f5:d9:3b:9f:bc:
        65:c5:4b:8f:ad:bc:10:58:a3:52:a9:5b:cc:a1:97:d6:55:97:
        8a:3e:62:a8:45:79:f9:78:c6:3d:1c:43:c3:0d:3e:e0:f2:95:
        c8:48:61:53:5f:ee:64:03:a9:cf:8d:6e:4d:4b:79:3a:90:e0:
        4b:b8:e4:db:59:42:76:b9:c1:fb:58:07:12:c6:d9:e9:38:f6:
        55:70:49:08:04:a2:3c:2b:2f:d6:93:01:8c:23:dc:00:c1:e4:
        df:28:5f:e1:2d:9f:24:7e:55:d9:a6:9f:af:2f:5b:53:b3:97:
        67:44:68:44:12:8c:e1:76:40:53:c9:d1:3d:2a:0e:f2:50:ee:
        cf:0c:e2:ab:07:5b:42:e5:4b:ff:4d:53:e0:35:17:f3:af:27:
        4e:93:15:b2:18:c8:52:fb
-----BEGIN CERTIFICATE-----
MIIGWzCCBEOgAwIBAgIBATANBgkqhkiG9w0BAQsFADCBoDELMAkGA1UEBhMCVVMx
ETAPBgNVBAgMCE1hcnlsYW5kMRIwEAYDVQQHDAlCYWx0aW1vcmUxFzAVBgNVBAoM
DkRGU1AgQ2xpZW50IENBMREwDwYDVQQLDAhQYXltZW50czEVMBMGA1UEAwwMZGZz
cGNsaWVudGNhMScwJQYJKoZIhvcNAQkBFhhkZnNwc2VydmVyY2FAZXhhbXBsZS5j
b20wHhcNMjQwMjA4MTc1NjE5WhcNMjYxMTA0MTc1NjE5WjBsMQswCQYDVQQGEwJV
UzELMAkGA1UECAwCTUQxEjAQBgNVBAcMCUJhbHRpbW9yZTEUMBIGA1UECgwLREZT
UCBDbGllbnQxETAPBgNVBAsMCFBheW1lbnRzMRMwEQYDVQQDDApkZnNwY2xpZW50
MIICIjANBgkqhkiG9w0BAQEFAAOCAg8AMIICCgKCAgEAjfALpsf37DkJwnw/+IQj
AlxNHFt43ASG8uHjbNRPd50OnijPgWja+ZeNyeF+y4y5nkqkrI1fVmq8eKCZ2h5K
hltOnJ2vBk8nO93rVSx12kIFWs5J9zpGaeWEjyMXa549dKvPylT0LG9z1VtMmUuD
t5nZJ7EHKMYm/uXLdF35ViVwFzXRtiHbt34ySGkNurB9InayjI2seFXH5goe8XUk
eIOiODGWNEFu+pFHPPtg4+VgM9E3lyEM2rkPDuQB4OLclqU3Os4cxFpfz4Lhc+DM
WGDrnyJ8baVdHOXyWENorC8jG1DgqkVpsDewWncBMkvOCL+6qoGawb7nmhiFdvJI
aqryWak+eUWp8ILcFT05YjGYwpVTeTcRmbZmnXp/2hVpnYzc1hCFn6A5OWZj2992
HtVcheKnCZ0ET6MQCcw4EU14glXI249Sx25TFeiujYlayv4vZFBrXSLE8vjLr/sW
isOYOz9m1HAL0vOX/0cqg/lbbVj3R3IWMShzVS4WydOXxXpeHMXvm+fg/PKZ1icL
ZOjlwqrNAwkjVxUqORzpQsU40jmwblrcZGa1vrdkzRfbGVt0HQV7z2ZdhZiXH5Bs
ydcbn3q5hfAkI54dwfOo6A9r+A5QQHsTLtbcnC4hruFxerQ/DE9OA6mq6QLZUJ7r
QSEP+fv6wfGO7dg3CTbDGAECAwEAAaOB0jCBzzAdBgNVHQ4EFgQUWiXpP0PYH44+
ehEL+mXpHS3KfjswHwYDVR0jBBgwFoAUlDKpqQU/JW9M369kW2z3zR+9gQMwCQYD
VR0TBAIwADALBgNVHQ8EBAMCBaAwMQYDVR0lBCowKAYIKwYBBQUHAwEGCCsGAQUF
BwMCBggrBgEFBQcDAwYIKwYBBQUHAwQwFAYDVR0RBA0wC4IJbG9jYWxob3N0MCwG
CWCGSAGG+EIBDQQfFh1PcGVuU1NMIEdlbmVyYXRlZCBDZXJ0aWZpY2F0ZTANBgkq
hkiG9w0BAQsFAAOCAgEAuJtH3nlomRn279aIhWc+7rKiFBZXrB05Q02z4kyTL1XQ
+qrRXnf4loiSJ8AAaMebDm5fMxIPZtzNWylKLy6uBJnHRWOZ+OuL2aVq74kW4RFy
RGBvAmbaxearYIO5NM0eT9SPhVxQzNf4BHBZhwtOWb/gXQcmt1YAvr0py771+9UQ
dw9Ozk1yQl3fGj9h050mTt6wljimn5pKxQjGy2Db4i9ms9qTVNG1yKY2PmU7fTmo
3cZJXg88JxL0kj3JnNzH91RPr3SuDDN0BDe+sjCnZTaYKPGc+iK/JBkTsF5nPQjR
OudzI6zDrRfanCnvw/W0ZRNzO+2xtAtnqVeu95ysufT8jjCvhqQhgAQc8tE2aB2J
SKFk1B84NR+ahMVrTxoQJGuUpbmyjD6g9foLZbg0M25m+10WtQxR7aJnKitKkxTp
Bv9czJkhYXh8VOI4lbxOlvvM9bpBn5swi2JZK5eU+/HZDfXZO5+8ZcVLj628EFij
UqlbzKGX1lWXij5iqEV5+XjGPRxDww0+4PKVyEhhU1/uZAOpz41uTUt5OpDgS7jk
21lCdrnB+1gHEsbZ6Tj2VXBJCASiPCsv1pMBjCPcAMHk3yhf4S2fJH5V2aafry9b
U7OXZ0RoRBKM4XZAU8nRPSoO8lDuzwziqwdbQuVL/01T4DUX868nTpMVshjIUvs=
-----END CERTIFICATE-----
