Certificate:
    Data:
        Version: 3 (0x2)
        Serial Number: 11 (0xb)
        Signature Algorithm: sha256WithRSAEncryption
        Issuer: C=US, ST=Maryland, L=Baltimore, O=DFSP Client CA, OU=Payments, CN=dfspclientca/emailAddress=dfspserverca@example.com
        Validity
            Not Before: Feb 14 02:03:38 2024 GMT
            Not After : Nov 10 02:03:38 2026 GMT
        Subject: C=US, ST=MD, L=Baltimore, O=DFSP Client, OU=Payments, CN=dfspclient
        Subject Public Key Info:
            Public Key Algorithm: rsaEncryption
                Public-Key: (4096 bit)
                Modulus:
                    00:ce:c1:2a:2d:ee:97:f9:b5:16:5e:60:24:ce:23:
                    8c:61:f9:c7:23:6a:12:d3:6b:61:2c:54:06:36:e4:
                    70:e1:f5:68:81:9f:15:d8:69:df:fc:cf:44:6d:32:
                    64:cd:26:2d:84:47:3e:74:3c:73:7e:75:ed:50:b1:
                    64:ac:af:26:cf:e3:ec:71:5e:7d:bd:c9:de:19:10:
                    f4:2c:75:53:37:5a:83:9d:37:67:97:6d:b7:91:b4:
                    48:27:cc:12:20:39:f7:c7:1f:ac:c4:4e:e9:72:e0:
                    2d:13:2b:e5:35:9b:4a:a2:30:53:f0:c7:41:47:f5:
                    ba:e0:61:25:13:d2:c6:47:83:85:57:7b:56:9c:f8:
                    c4:9f:b8:f0:0c:ea:d1:92:01:9f:aa:ad:88:33:15:
                    a0:cf:a3:3a:0f:93:ab:75:40:9d:91:a8:64:49:dd:
                    b8:18:b7:a0:f6:a3:e0:74:5d:42:ed:8b:25:f2:c2:
                    92:02:85:07:77:7f:24:65:c4:3b:22:4e:3e:cb:c0:
                    75:fb:4e:79:bb:db:50:e7:8b:76:4b:ef:36:9f:8b:
                    af:15:37:5e:0a:6b:20:b8:6e:c7:fe:30:50:a8:39:
                    d2:d4:5a:59:f2:8e:2c:96:cb:37:af:96:e3:e6:1f:
                    7a:54:79:81:96:16:70:2e:20:4f:a3:e7:d3:50:03:
                    05:63:c8:8f:d1:01:e1:1c:11:af:a3:99:4e:6e:c0:
                    da:a0:32:50:43:4c:f4:70:bc:3b:71:48:b9:6e:42:
                    bb:c5:5f:60:00:35:bc:99:5a:bc:0a:82:de:a3:43:
                    81:26:e5:0a:fd:39:1c:29:fa:4a:d5:77:41:a6:2a:
                    20:da:8e:ed:61:4e:10:84:35:4c:c5:a1:16:06:ab:
                    41:29:45:2f:73:2b:d7:27:73:15:88:18:94:f0:72:
                    eb:79:d4:43:1d:75:91:65:b6:a5:8c:29:4c:6b:84:
                    a5:77:16:b9:db:73:e6:1c:c3:35:8b:ed:e9:46:74:
                    0e:f5:67:56:c3:94:07:cb:9d:ad:52:85:84:9f:df:
                    6f:ab:fe:db:7b:89:db:c3:6a:49:e8:12:53:58:b1:
                    ea:3e:29:e2:1a:89:eb:00:c8:44:f4:e0:8d:16:dc:
                    fb:f5:e2:c5:aa:0f:7c:0f:81:08:92:39:d8:81:d9:
                    80:49:da:56:b5:fd:12:4e:f2:52:b6:b8:31:53:3c:
                    a0:04:81:8c:1a:71:cd:b2:ca:f5:10:c0:57:39:b7:
                    e8:0f:50:31:08:57:a4:d5:e6:d8:42:2f:b6:4f:52:
                    c1:ac:cb:51:ab:f5:8b:70:42:fc:c7:4c:e5:b4:c4:
                    fa:97:f7:53:eb:53:37:79:51:2e:fe:10:80:14:65:
                    3e:e2:f5
                Exponent: 65537 (0x10001)
        X509v3 extensions:
            X509v3 Subject Key Identifier: 
                B7:98:30:3B:87:A0:9B:ED:F4:AE:71:51:25:E7:0F:2C:A4:5D:11:16
            X509v3 Authority Key Identifier: 
                EC:3A:E7:1E:CC:8B:EC:47:A3:1F:81:73:93:8D:A3:A5:FB:64:F5:A4
            X509v3 Basic Constraints: 
                CA:FALSE
            X509v3 Key Usage: 
                Digital Signature, Key Encipherment
            X509v3 Extended Key Usage: 
                TLS Web Server Authentication, TLS Web Client Authentication, Code Signing, E-mail Protection
            X509v3 Subject Alternative Name: 
                DNS:localhost
            Netscape Comment: 
                OpenSSL Generated Certificate
    Signature Algorithm: sha256WithRSAEncryption
    Signature Value:
        6e:1a:f5:a0:37:7a:d2:34:89:3e:99:eb:2a:9f:5d:ba:8d:0a:
        59:67:0b:04:16:3e:b3:49:6c:83:3b:7b:34:d2:ad:5c:9b:4f:
        34:79:15:36:f4:44:fb:55:1e:7f:64:65:21:31:6c:1b:69:39:
        6f:3a:a6:72:0c:dd:3c:e5:4b:76:44:ff:c7:91:33:c5:13:05:
        3c:45:88:10:95:be:a0:0d:17:db:ae:1c:6d:20:04:09:2c:53:
        a8:ed:fa:61:7a:b6:fe:82:8f:a8:af:33:41:2b:0e:6b:f9:40:
        d0:c8:70:40:26:23:c3:66:8b:0f:34:2f:05:b3:77:d1:b8:14:
        a7:21:30:bb:1e:40:4e:6e:0b:02:72:2e:ac:1b:9d:fc:85:d6:
        fb:59:e8:96:1f:c7:4c:02:90:dc:f8:5d:cd:89:d8:ec:31:e0:
        65:35:f5:f8:30:09:6d:d1:4d:fe:6a:97:90:7a:6a:04:6d:c4:
        5c:4b:d7:e5:ea:62:e6:0e:f3:3d:18:58:02:d3:ea:ca:cb:0f:
        b8:dc:38:89:f4:bd:4d:16:24:ed:6f:70:49:de:d5:14:4b:9e:
        ad:1c:f9:a7:dd:25:af:6f:5e:99:dd:ce:db:1f:f5:ab:0e:8c:
        eb:bb:66:30:ab:5d:57:48:80:6b:50:91:24:bb:48:d4:01:d0:
        1c:72:7f:3d:9a:96:4f:47:38:d2:8a:9b:f1:b8:9b:98:99:e2:
        2a:7e:7b:86:47:86:74:f5:8b:17:30:b6:56:50:9b:fe:d2:8e:
        e4:34:d2:ce:7d:bc:b1:1d:df:7d:a9:d2:74:68:b2:43:05:1b:
        10:1d:43:21:43:9b:b8:b8:e2:c9:ce:51:2f:8f:6b:d7:b5:49:
        40:ae:4a:8e:86:51:f8:55:1d:bc:3a:cd:73:eb:b5:f9:af:a4:
        5c:58:6f:bd:76:5d:a9:1a:e9:c9:85:ce:3a:d0:92:43:3a:bd:
        7f:c4:31:09:aa:0e:f0:4f:37:bf:d6:b0:c6:88:50:df:53:ff:
        25:b8:b8:02:ea:07:5f:ce:6d:11:ed:eb:46:13:30:4a:10:90:
        12:65:13:3a:46:3e:e7:99:a3:56:94:19:9f:a5:51:10:c8:c7:
        ad:17:10:62:f4:7d:76:8f:9f:e9:a2:47:ac:77:de:32:cc:b9:
        c7:81:7b:c4:a2:bc:bd:81:b1:18:1e:c5:6c:79:ae:60:96:01:
        db:15:89:ee:10:ca:2f:04:db:78:6f:c3:ab:6c:cc:74:03:38:
        cf:3b:7b:40:e6:71:f1:cf:22:8f:87:05:57:16:dd:bc:6c:90:
        a6:f6:b7:45:96:f3:b7:5e:01:fc:51:17:9d:0a:aa:0a:56:f4:
        c4:7d:de:bc:f1:32:df:48
-----BEGIN CERTIFICATE-----
MIIGWzCCBEOgAwIBAgIBCzANBgkqhkiG9w0BAQsFADCBoDELMAkGA1UEBhMCVVMx
ETAPBgNVBAgMCE1hcnlsYW5kMRIwEAYDVQQHDAlCYWx0aW1vcmUxFzAVBgNVBAoM
DkRGU1AgQ2xpZW50IENBMREwDwYDVQQLDAhQYXltZW50czEVMBMGA1UEAwwMZGZz
cGNsaWVudGNhMScwJQYJKoZIhvcNAQkBFhhkZnNwc2VydmVyY2FAZXhhbXBsZS5j
b20wHhcNMjQwMjE0MDIwMzM4WhcNMjYxMTEwMDIwMzM4WjBsMQswCQYDVQQGEwJV
UzELMAkGA1UECAwCTUQxEjAQBgNVBAcMCUJhbHRpbW9yZTEUMBIGA1UECgwLREZT
UCBDbGllbnQxETAPBgNVBAsMCFBheW1lbnRzMRMwEQYDVQQDDApkZnNwY2xpZW50
MIICIjANBgkqhkiG9w0BAQEFAAOCAg8AMIICCgKCAgEAzsEqLe6X+bUWXmAkziOM
YfnHI2oS02thLFQGNuRw4fVogZ8V2Gnf/M9EbTJkzSYthEc+dDxzfnXtULFkrK8m
z+PscV59vcneGRD0LHVTN1qDnTdnl223kbRIJ8wSIDn3xx+sxE7pcuAtEyvlNZtK
ojBT8MdBR/W64GElE9LGR4OFV3tWnPjEn7jwDOrRkgGfqq2IMxWgz6M6D5OrdUCd
kahkSd24GLeg9qPgdF1C7Ysl8sKSAoUHd38kZcQ7Ik4+y8B1+055u9tQ54t2S+82
n4uvFTdeCmsguG7H/jBQqDnS1FpZ8o4slss3r5bj5h96VHmBlhZwLiBPo+fTUAMF
Y8iP0QHhHBGvo5lObsDaoDJQQ0z0cLw7cUi5bkK7xV9gADW8mVq8CoLeo0OBJuUK
/TkcKfpK1XdBpiog2o7tYU4QhDVMxaEWBqtBKUUvcyvXJ3MViBiU8HLredRDHXWR
ZbaljClMa4Sldxa523PmHMM1i+3pRnQO9WdWw5QHy52tUoWEn99vq/7be4nbw2pJ
6BJTWLHqPiniGonrAMhE9OCNFtz79eLFqg98D4EIkjnYgdmASdpWtf0STvJStrgx
UzygBIGMGnHNssr1EMBXObfoD1AxCFek1ebYQi+2T1LBrMtRq/WLcEL8x0zltMT6
l/dT61M3eVEu/hCAFGU+4vUCAwEAAaOB0jCBzzAdBgNVHQ4EFgQUt5gwO4egm+30
rnFRJecPLKRdERYwHwYDVR0jBBgwFoAU7DrnHsyL7EejH4Fzk42jpftk9aQwCQYD
VR0TBAIwADALBgNVHQ8EBAMCBaAwMQYDVR0lBCowKAYIKwYBBQUHAwEGCCsGAQUF
BwMCBggrBgEFBQcDAwYIKwYBBQUHAwQwFAYDVR0RBA0wC4IJbG9jYWxob3N0MCwG
CWCGSAGG+EIBDQQfFh1PcGVuU1NMIEdlbmVyYXRlZCBDZXJ0aWZpY2F0ZTANBgkq
hkiG9w0BAQsFAAOCAgEAbhr1oDd60jSJPpnrKp9duo0KWWcLBBY+s0lsgzt7NNKt
XJtPNHkVNvRE+1Uef2RlITFsG2k5bzqmcgzdPOVLdkT/x5EzxRMFPEWIEJW+oA0X
264cbSAECSxTqO36YXq2/oKPqK8zQSsOa/lA0MhwQCYjw2aLDzQvBbN30bgUpyEw
ux5ATm4LAnIurBud/IXW+1nolh/HTAKQ3PhdzYnY7DHgZTX1+DAJbdFN/mqXkHpq
BG3EXEvX5epi5g7zPRhYAtPqyssPuNw4ifS9TRYk7W9wSd7VFEuerRz5p90lr29e
md3O2x/1qw6M67tmMKtdV0iAa1CRJLtI1AHQHHJ/PZqWT0c40oqb8bibmJniKn57
hkeGdPWLFzC2VlCb/tKO5DTSzn28sR3ffanSdGiyQwUbEB1DIUObuLjiyc5RL49r
17VJQK5KjoZR+FUdvDrNc+u1+a+kXFhvvXZdqRrpyYXOOtCSQzq9f8QxCaoO8E83
v9awxohQ31P/Jbi4AuoHX85tEe3rRhMwShCQEmUTOkY+55mjVpQZn6VREMjHrRcQ
YvR9do+f6aJHrHfeMsy5x4F7xKK8vYGxGB7FbHmuYJYB2xWJ7hDKLwTbeG/Dq2zM
dAM4zzt7QOZx8c8ij4cFVxbdvGyQpva3RZbzt14B/FEXnQqqClb0xH3evPEy30g=
-----END CERTIFICATE-----
