Certificate:
    Data:
        Version: 3 (0x2)
        Serial Number: 2 (0x2)
        Signature Algorithm: sha256WithRSAEncryption
        Issuer: C=US, ST=Maryland, L=Baltimore, O=DFSP Server CA, OU=Payments, CN=dfspserverca/emailAddress=dfspserverca@example.com
        Validity
            Not Before: Feb  8 18:00:55 2024 GMT
            Not After : Nov  4 18:00:55 2026 GMT
        Subject: CN=payer-sdk-scheme-adapter-api-svc
        Subject Public Key Info:
            Public Key Algorithm: rsaEncryption
                Public-Key: (4096 bit)
                Modulus:
                    00:dd:7e:58:75:78:8f:08:9c:7b:83:bd:67:44:c5:
                    4d:13:ae:af:e6:a8:24:28:26:2b:a3:7f:4b:7a:cc:
                    e6:56:e0:e9:da:32:5b:07:8b:1c:cb:04:ed:06:47:
                    45:20:70:fa:da:bf:15:35:a4:fb:0e:37:41:54:d9:
                    3e:05:12:dd:6d:0c:24:86:53:f1:a0:74:e1:1c:80:
                    1e:5f:77:a5:9d:52:37:ac:b5:05:f9:be:62:30:16:
                    60:a6:fe:d0:51:56:5c:fe:65:cb:20:28:59:03:2b:
                    7b:93:44:9f:7f:dc:c5:c5:c3:a4:f2:e9:c8:74:8b:
                    45:6b:9d:64:e0:eb:27:1d:de:cb:2f:b8:29:a8:d3:
                    07:66:ee:5f:1e:b7:da:f8:76:d4:e2:a0:da:53:b4:
                    46:69:bf:3b:94:10:10:0c:96:bf:cc:a5:80:d5:23:
                    8d:b2:6e:81:70:e2:4e:94:1f:85:7b:58:3d:a7:10:
                    9b:1d:cf:e9:58:b9:b6:b5:ee:45:30:c1:78:9f:6d:
                    ec:07:4e:e6:17:83:6c:c5:a0:5d:8f:13:16:80:0c:
                    64:74:21:c1:63:fd:2a:fc:06:85:64:6d:72:7b:f3:
                    0e:bd:e4:94:63:27:f6:b3:7a:cd:dd:ed:5e:ff:2b:
                    13:ff:2f:df:bc:26:b5:eb:a9:fe:df:18:38:d6:50:
                    3c:dd:9f:36:5d:1e:df:26:ae:cf:ea:17:79:ab:8b:
                    8c:13:c7:ae:4b:9a:ac:8d:cb:45:fa:ff:fc:28:10:
                    a8:4a:14:e6:fa:ec:e1:98:c8:b6:89:c6:32:96:73:
                    93:a1:d3:d4:db:64:08:a3:0d:2b:ca:a4:12:b7:68:
                    63:69:99:84:e2:76:fe:e4:c4:6c:40:03:dd:d2:ba:
                    2a:0e:7e:32:16:89:49:32:35:e8:43:46:9d:13:d2:
                    f9:95:7a:26:69:5e:c7:c3:02:ae:51:71:91:f8:d7:
                    f8:4f:f0:0e:40:7d:83:95:33:fb:1c:37:d9:eb:05:
                    8a:79:7b:e6:32:e3:5b:28:42:0c:1b:e2:14:fe:99:
                    3d:bf:bd:13:6b:bc:b5:0c:85:b7:17:52:cd:1b:fe:
                    47:52:29:4d:b5:b5:06:a4:bd:e2:77:41:b1:38:59:
                    b8:74:71:3b:99:4c:9f:fd:c7:60:50:bc:36:55:3a:
                    ad:ce:f7:e8:f1:1f:e9:8c:81:0d:7d:a0:07:fd:0f:
                    a6:bd:1e:74:0e:0f:b7:e8:31:cf:b3:7a:62:63:e8:
                    19:19:be:ca:1d:69:b2:1c:08:70:08:d0:ac:15:7f:
                    5e:ce:c6:44:6a:8d:b5:bf:df:90:3b:d9:fc:68:2b:
                    9e:12:b8:52:6c:06:2f:73:09:45:48:23:81:ba:08:
                    fb:54:d9
                Exponent: 65537 (0x10001)
        X509v3 extensions:
            X509v3 Subject Key Identifier: 
                08:6E:AD:22:A9:EB:23:9B:9D:5A:90:90:1D:4C:B0:06:AE:8D:9E:00
            X509v3 Authority Key Identifier: 
                5C:A9:1C:B3:A2:44:F3:1B:96:9F:0A:09:1D:16:BE:7F:54:99:84:E6
            X509v3 Basic Constraints: 
                CA:FALSE
            X509v3 Key Usage: 
                Digital Signature, Key Encipherment
            X509v3 Extended Key Usage: 
                TLS Web Server Authentication, TLS Web Client Authentication, Code Signing, E-mail Protection
            X509v3 Subject Alternative Name: 
                DNS:payer-sdk-scheme-adapter-api-svc
            Netscape Comment: 
                OpenSSL Generated Certificate
    Signature Algorithm: sha256WithRSAEncryption
    Signature Value:
        08:ec:f8:dd:f2:f0:b0:3c:92:c4:d2:74:6d:5f:30:ff:e8:b8:
        6e:6e:4a:df:9b:3c:b8:83:60:f1:8f:d9:69:6d:4c:6c:4f:9b:
        ff:92:8a:26:bc:78:81:80:6f:e9:ad:bb:eb:36:28:81:56:d9:
        58:15:31:12:e5:e6:6a:08:47:ac:f1:51:ce:0e:b0:5b:da:03:
        45:25:cc:48:7a:93:b7:7c:78:5c:a8:23:19:f7:59:2b:e6:f9:
        23:a3:6f:6e:7e:9e:2c:17:10:b9:ab:65:9c:54:ca:1f:63:31:
        b0:d2:79:06:e6:9d:96:c8:87:4e:b8:19:bc:f0:62:1d:c6:62:
        64:07:c4:9a:0d:35:36:98:67:e0:91:bf:c3:38:b6:0d:cf:96:
        11:73:55:7e:f3:46:69:71:d9:37:b9:2f:d6:c0:33:35:29:6a:
        de:61:7a:d3:ca:92:34:40:81:a4:41:ae:14:6e:36:41:97:4a:
        6c:a2:25:40:7b:e9:be:23:b7:e4:5f:72:38:36:93:bd:2b:88:
        f6:f9:50:1e:3c:a9:65:b8:48:9d:7c:4a:5a:a3:f1:c0:ca:ee:
        de:70:db:c4:ee:2c:4a:2a:1f:b4:be:1e:e1:28:54:ff:0e:c1:
        af:4a:eb:9f:91:78:bb:ee:18:70:53:ac:52:9f:b8:d0:56:cb:
        91:bb:65:a0:fc:cd:ac:b3:0e:ab:93:af:1e:24:10:2d:6f:f8:
        ba:0f:2f:5e:56:fe:72:4d:89:d8:ae:c1:a1:f4:7a:08:27:c2:
        1e:58:9c:b3:a2:22:d0:70:2d:dd:53:f0:5a:fd:da:93:c2:0f:
        54:b7:62:61:e3:b1:54:3e:66:29:0f:d5:12:28:ec:28:39:c7:
        6f:0b:18:2b:28:e7:99:1a:80:07:92:98:95:4e:8b:90:ad:56:
        55:8a:d7:47:1a:2b:b8:52:d4:4c:23:26:49:cf:b6:6e:65:05:
        4d:6f:f7:0f:40:31:42:0d:73:7a:69:21:e4:7d:f3:db:d4:f5:
        a0:a3:63:88:d7:eb:c0:b6:f7:05:a6:b9:66:49:c2:77:e5:17:
        67:42:c2:18:fc:c0:14:8d:33:b9:27:d4:ed:b2:f6:b2:4a:6c:
        e9:96:b8:95:a1:f8:98:1b:6f:78:3e:19:3c:87:3d:e1:2d:1f:
        64:86:0f:b1:94:07:60:c7:58:45:aa:35:d1:50:d4:1e:00:3e:
        4d:ff:fa:49:89:26:8f:35:2e:54:c6:62:05:e4:bc:19:15:f7:
        74:ae:3d:98:87:14:09:a7:83:c5:6c:3a:7e:2a:13:36:89:80:
        99:97:6a:3d:31:00:a0:3e:43:f9:31:e1:9f:8f:32:d4:ce:10:
        bb:76:8d:b6:68:44:c9:ed
-----BEGIN CERTIFICATE-----
MIIGMTCCBBmgAwIBAgIBAjANBgkqhkiG9w0BAQsFADCBoDELMAkGA1UEBhMCVVMx
ETAPBgNVBAgMCE1hcnlsYW5kMRIwEAYDVQQHDAlCYWx0aW1vcmUxFzAVBgNVBAoM
DkRGU1AgU2VydmVyIENBMREwDwYDVQQLDAhQYXltZW50czEVMBMGA1UEAwwMZGZz
cHNlcnZlcmNhMScwJQYJKoZIhvcNAQkBFhhkZnNwc2VydmVyY2FAZXhhbXBsZS5j
b20wHhcNMjQwMjA4MTgwMDU1WhcNMjYxMTA0MTgwMDU1WjArMSkwJwYDVQQDDCBw
YXllci1zZGstc2NoZW1lLWFkYXB0ZXItYXBpLXN2YzCCAiIwDQYJKoZIhvcNAQEB
BQADggIPADCCAgoCggIBAN1+WHV4jwice4O9Z0TFTROur+aoJCgmK6N/S3rM5lbg
6doyWweLHMsE7QZHRSBw+tq/FTWk+w43QVTZPgUS3W0MJIZT8aB04RyAHl93pZ1S
N6y1Bfm+YjAWYKb+0FFWXP5lyyAoWQMre5NEn3/cxcXDpPLpyHSLRWudZODrJx3e
yy+4KajTB2buXx632vh21OKg2lO0Rmm/O5QQEAyWv8ylgNUjjbJugXDiTpQfhXtY
PacQmx3P6Vi5trXuRTDBeJ9t7AdO5heDbMWgXY8TFoAMZHQhwWP9KvwGhWRtcnvz
Dr3klGMn9rN6zd3tXv8rE/8v37wmteup/t8YONZQPN2fNl0e3yauz+oXeauLjBPH
rkuarI3LRfr//CgQqEoU5vrs4ZjItonGMpZzk6HT1NtkCKMNK8qkErdoY2mZhOJ2
/uTEbEAD3dK6Kg5+MhaJSTI16ENGnRPS+ZV6Jmlex8MCrlFxkfjX+E/wDkB9g5Uz
+xw32esFinl75jLjWyhCDBviFP6ZPb+9E2u8tQyFtxdSzRv+R1IpTbW1BqS94ndB
sThZuHRxO5lMn/3HYFC8NlU6rc736PEf6YyBDX2gB/0Ppr0edA4Pt+gxz7N6YmPo
GRm+yh1pshwIcAjQrBV/Xs7GRGqNtb/fkDvZ/GgrnhK4UmwGL3MJRUgjgboI+1TZ
AgMBAAGjgekwgeYwHQYDVR0OBBYEFAhurSKp6yObnVqQkB1MsAaujZ4AMB8GA1Ud
IwQYMBaAFFypHLOiRPMblp8KCR0Wvn9UmYTmMAkGA1UdEwQCMAAwCwYDVR0PBAQD
AgWgMDEGA1UdJQQqMCgGCCsGAQUFBwMBBggrBgEFBQcDAgYIKwYBBQUHAwMGCCsG
AQUFBwMEMCsGA1UdEQQkMCKCIHBheWVyLXNkay1zY2hlbWUtYWRhcHRlci1hcGkt
c3ZjMCwGCWCGSAGG+EIBDQQfFh1PcGVuU1NMIEdlbmVyYXRlZCBDZXJ0aWZpY2F0
ZTANBgkqhkiG9w0BAQsFAAOCAgEACOz43fLwsDySxNJ0bV8w/+i4bm5K35s8uINg
8Y/ZaW1MbE+b/5KKJrx4gYBv6a276zYogVbZWBUxEuXmaghHrPFRzg6wW9oDRSXM
SHqTt3x4XKgjGfdZK+b5I6Nvbn6eLBcQuatlnFTKH2MxsNJ5BuadlsiHTrgZvPBi
HcZiZAfEmg01Nphn4JG/wzi2Dc+WEXNVfvNGaXHZN7kv1sAzNSlq3mF608qSNECB
pEGuFG42QZdKbKIlQHvpviO35F9yODaTvSuI9vlQHjypZbhInXxKWqPxwMru3nDb
xO4sSioftL4e4ShU/w7Br0rrn5F4u+4YcFOsUp+40FbLkbtloPzNrLMOq5OvHiQQ
LW/4ug8vXlb+ck2J2K7BofR6CCfCHlics6Ii0HAt3VPwWv3ak8IPVLdiYeOxVD5m
KQ/VEijsKDnHbwsYKyjnmRqAB5KYlU6LkK1WVYrXRxoruFLUTCMmSc+2bmUFTW/3
D0AxQg1zemkh5H3z29T1oKNjiNfrwLb3Baa5ZknCd+UXZ0LCGPzAFI0zuSfU7bL2
skps6Za4laH4mBtveD4ZPIc94S0fZIYPsZQHYMdYRao10VDUHgA+Tf/6SYkmjzUu
VMZiBeS8GRX3dK49mIcUCaeDxWw6fioTNomAmZdqPTEAoD5D+THhn48y1M4Qu3aN
tmhEye0=
-----END CERTIFICATE-----
