Certificate:
    Data:
        Version: 3 (0x2)
        Serial Number: 3 (0x3)
        Signature Algorithm: sha256WithRSAEncryption
        Issuer: C=US, ST=Maryland, L=Baltimore, O=DFSP Server CA, OU=Payments, CN=dfspserverca/emailAddress=dfspserverca@example.com
        Validity
            Not Before: Feb  8 18:51:06 2024 GMT
            Not After : Nov  4 18:51:06 2026 GMT
        Subject: CN=payer-sdk-scheme-adapter-api-svc
        Subject Public Key Info:
            Public Key Algorithm: rsaEncryption
                Public-Key: (4096 bit)
                Modulus:
                    00:d6:fe:5f:ac:4a:a4:ab:ad:0e:ed:72:7d:62:47:
                    51:af:92:9a:52:3f:4c:8c:58:89:47:a3:db:3d:e0:
                    b4:f7:7c:31:b4:3b:51:b0:aa:e7:51:8e:31:ce:05:
                    b1:27:c0:69:36:9e:3b:e1:3f:54:30:85:4f:8c:aa:
                    7c:3b:d3:2b:7e:6a:22:91:4b:00:fe:7e:6f:fe:f3:
                    26:51:b9:1a:a5:a7:17:91:d4:db:ea:97:85:3a:bf:
                    3e:f9:80:5d:e7:54:28:5e:db:ce:84:fd:bf:cb:90:
                    ff:88:0b:6a:a5:9e:c9:9a:0c:f0:1e:04:e3:0a:60:
                    94:c9:21:40:98:29:2f:99:6a:d8:a4:19:27:dd:34:
                    ba:cc:3f:25:9a:f5:a0:f1:b3:38:e7:44:a1:89:f7:
                    74:c9:be:c5:26:12:a5:86:93:b3:af:d9:d1:67:98:
                    28:68:ad:83:e2:d3:3e:dc:cf:09:78:4d:5b:d6:1f:
                    b5:8c:e0:d6:90:69:c7:c2:38:7e:aa:0c:9f:8e:51:
                    37:c5:17:3f:d0:bc:4d:85:f2:ef:32:fb:a3:80:25:
                    5c:68:a7:b1:c9:de:e9:88:d0:e4:6d:ee:f7:25:cf:
                    e6:bb:d4:6d:9a:56:53:27:74:ef:3f:47:9a:2e:f8:
                    a9:15:b6:79:a2:e6:88:c6:0e:eb:bf:ef:5a:dd:08:
                    25:a8:ba:99:c2:d7:f7:8d:3d:8e:7c:1c:f4:a5:d7:
                    e1:1e:03:4b:ab:ca:67:b8:86:f3:ec:de:ab:12:b7:
                    16:a3:28:06:9f:e2:f1:9d:86:ec:b5:69:49:a2:a5:
                    21:a7:2e:8f:ca:94:a6:15:6a:b6:6e:e8:4b:01:10:
                    dc:76:27:98:62:6b:c2:21:f9:3c:31:2e:4b:10:10:
                    b1:f2:44:5e:54:d6:eb:20:75:59:60:02:1a:ab:8a:
                    68:fb:5a:e1:3a:ea:f3:74:f5:ff:e1:f1:c8:8e:51:
                    75:f8:fc:47:0a:b9:4a:79:7e:f4:44:75:27:f7:cb:
                    01:67:76:9c:59:59:db:dc:51:cc:ad:79:3f:7e:68:
                    2f:98:fa:4c:c0:38:d8:f5:d7:71:98:df:88:b3:1c:
                    9f:9b:3d:d0:f2:20:ae:9e:45:af:f9:86:ee:d6:ef:
                    0b:63:a4:e4:e7:d3:03:12:da:e1:b2:02:2c:1d:e1:
                    0b:7a:a2:a1:e0:5f:8e:d3:82:36:d9:71:cc:ff:12:
                    de:bc:c2:6d:b3:0a:49:bd:6e:1b:e2:85:5d:7e:f8:
                    c2:df:18:46:cb:01:89:38:45:89:2c:8d:f6:ae:c3:
                    df:4a:61:93:90:b8:bd:99:d8:b0:be:be:2e:50:67:
                    63:9d:1f:a4:19:2b:dd:bf:a5:7b:76:76:14:3c:03:
                    ed:db:73
                Exponent: 65537 (0x10001)
        X509v3 extensions:
            X509v3 Subject Key Identifier: 
                81:6E:A3:7A:8D:B3:F3:D9:19:BA:4A:75:77:5A:E9:E4:37:49:E7:5B
            X509v3 Authority Key Identifier: 
                5C:A9:1C:B3:A2:44:F3:1B:96:9F:0A:09:1D:16:BE:7F:54:99:84:E6
            X509v3 Basic Constraints: 
                CA:FALSE
            X509v3 Key Usage: 
                Digital Signature, Key Encipherment
            X509v3 Extended Key Usage: 
                TLS Web Server Authentication, TLS Web Client Authentication, Code Signing, E-mail Protection
            X509v3 Subject Alternative Name: 
                DNS:payer-sdk-scheme-adapter-api-svc, DNS:payee-sdk-scheme-adapter-api-svc
            Netscape Comment: 
                OpenSSL Generated Certificate
    Signature Algorithm: sha256WithRSAEncryption
    Signature Value:
        62:65:21:3a:c2:64:9b:3c:4f:74:ab:4d:72:af:d6:33:f7:cd:
        6a:6e:0e:9f:90:aa:e8:48:f6:7b:5b:be:09:0f:b1:a6:84:c5:
        41:ab:3a:4b:e0:74:ca:37:09:ff:52:f5:b0:e7:f1:40:82:12:
        4b:e5:56:1b:0a:56:08:ed:31:d1:7c:c6:ae:b4:a1:da:38:e6:
        0b:af:d5:fc:4c:62:98:d2:fc:f3:d2:ec:d2:36:ab:c9:44:dc:
        8f:c2:83:50:34:38:e9:63:0b:01:23:f4:43:6f:ca:2a:3b:2c:
        5a:92:06:06:c8:ad:ba:7d:9f:84:d1:3c:93:c2:af:65:35:bb:
        8f:84:9d:0f:1a:81:88:56:f5:46:8c:1e:3c:b5:23:00:d0:5e:
        11:13:47:c4:2f:95:4b:d9:62:14:0d:d2:11:36:18:98:e2:a7:
        f0:a7:d7:db:42:28:a4:37:0c:99:e4:dd:8a:e9:6d:82:62:98:
        d1:be:4d:60:a8:a6:83:7b:ad:ec:ce:63:b7:8e:27:e7:1d:45:
        fd:b5:87:23:8c:13:60:43:8c:6c:68:6e:61:66:e9:c3:fb:ed:
        5c:f2:10:0f:25:e4:6e:9d:fb:b1:d0:80:12:84:08:f7:ce:f7:
        b9:72:fc:86:01:a7:34:1b:a7:df:9c:40:83:76:b9:b5:4c:89:
        38:27:0b:66:c1:24:5f:b3:77:7d:af:df:64:ab:07:6b:32:cb:
        5d:98:e6:26:55:d2:90:5c:fb:8f:ff:97:37:78:75:9c:19:7d:
        ff:5a:f6:e1:e8:c3:94:56:18:8e:d3:96:c8:6c:20:f7:fd:38:
        79:6c:7d:05:15:a3:5c:66:70:19:76:66:80:2e:5b:98:fa:6c:
        05:55:64:22:2e:57:7f:d6:d3:3b:23:14:f8:8a:92:f1:ff:f2:
        1e:c8:c9:21:57:db:ef:91:b3:b0:fb:08:da:88:48:0c:1c:5d:
        6f:f4:1c:37:e6:1c:65:11:db:ad:ee:b7:33:ff:a4:77:54:ef:
        2f:06:d8:a1:4c:b0:78:86:88:82:f5:97:a7:dc:fd:9d:32:04:
        4c:20:ea:d4:02:98:ba:98:e5:ef:74:b5:27:6a:32:d3:e0:9a:
        0d:45:15:e8:89:b4:77:29:6d:ea:2c:fb:3c:ad:7f:31:38:d1:
        27:84:f8:53:f6:48:1f:c5:e6:bf:b8:ac:38:e2:32:e0:da:f0:
        6f:c9:80:e7:f4:2c:3b:54:d9:8d:79:02:5a:4f:0f:b5:f3:93:
        32:a6:88:e9:4c:55:37:53:4e:40:ee:d8:2b:77:a1:02:3c:b1:
        82:c4:1c:fe:88:8e:f8:8f:0a:be:de:fd:e8:60:e6:ac:04:58:
        0e:e7:45:81:2b:42:3c:83
-----BEGIN CERTIFICATE-----
MIIGVTCCBD2gAwIBAgIBAzANBgkqhkiG9w0BAQsFADCBoDELMAkGA1UEBhMCVVMx
ETAPBgNVBAgMCE1hcnlsYW5kMRIwEAYDVQQHDAlCYWx0aW1vcmUxFzAVBgNVBAoM
DkRGU1AgU2VydmVyIENBMREwDwYDVQQLDAhQYXltZW50czEVMBMGA1UEAwwMZGZz
cHNlcnZlcmNhMScwJQYJKoZIhvcNAQkBFhhkZnNwc2VydmVyY2FAZXhhbXBsZS5j
b20wHhcNMjQwMjA4MTg1MTA2WhcNMjYxMTA0MTg1MTA2WjArMSkwJwYDVQQDDCBw
YXllci1zZGstc2NoZW1lLWFkYXB0ZXItYXBpLXN2YzCCAiIwDQYJKoZIhvcNAQEB
BQADggIPADCCAgoCggIBANb+X6xKpKutDu1yfWJHUa+SmlI/TIxYiUej2z3gtPd8
MbQ7UbCq51GOMc4FsSfAaTaeO+E/VDCFT4yqfDvTK35qIpFLAP5+b/7zJlG5GqWn
F5HU2+qXhTq/PvmAXedUKF7bzoT9v8uQ/4gLaqWeyZoM8B4E4wpglMkhQJgpL5lq
2KQZJ900usw/JZr1oPGzOOdEoYn3dMm+xSYSpYaTs6/Z0WeYKGitg+LTPtzPCXhN
W9YftYzg1pBpx8I4fqoMn45RN8UXP9C8TYXy7zL7o4AlXGinscne6YjQ5G3u9yXP
5rvUbZpWUyd07z9Hmi74qRW2eaLmiMYO67/vWt0IJai6mcLX9409jnwc9KXX4R4D
S6vKZ7iG8+zeqxK3FqMoBp/i8Z2G7LVpSaKlIacuj8qUphVqtm7oSwEQ3HYnmGJr
wiH5PDEuSxAQsfJEXlTW6yB1WWACGquKaPta4Trq83T1/+HxyI5Rdfj8Rwq5Snl+
9ER1J/fLAWd2nFlZ29xRzK15P35oL5j6TMA42PXXcZjfiLMcn5s90PIgrp5Fr/mG
7tbvC2Ok5OfTAxLa4bICLB3hC3qioeBfjtOCNtlxzP8S3rzCbbMKSb1uG+KFXX74
wt8YRssBiThFiSyN9q7D30phk5C4vZnYsL6+LlBnY50fpBkr3b+le3Z2FDwD7dtz
AgMBAAGjggEMMIIBCDAdBgNVHQ4EFgQUgW6jeo2z89kZukp1d1rp5DdJ51swHwYD
VR0jBBgwFoAUXKkcs6JE8xuWnwoJHRa+f1SZhOYwCQYDVR0TBAIwADALBgNVHQ8E
BAMCBaAwMQYDVR0lBCowKAYIKwYBBQUHAwEGCCsGAQUFBwMCBggrBgEFBQcDAwYI
KwYBBQUHAwQwTQYDVR0RBEYwRIIgcGF5ZXItc2RrLXNjaGVtZS1hZGFwdGVyLWFw
aS1zdmOCIHBheWVlLXNkay1zY2hlbWUtYWRhcHRlci1hcGktc3ZjMCwGCWCGSAGG
+EIBDQQfFh1PcGVuU1NMIEdlbmVyYXRlZCBDZXJ0aWZpY2F0ZTANBgkqhkiG9w0B
AQsFAAOCAgEAYmUhOsJkmzxPdKtNcq/WM/fNam4On5Cq6Ej2e1u+CQ+xpoTFQas6
S+B0yjcJ/1L1sOfxQIISS+VWGwpWCO0x0XzGrrSh2jjmC6/V/EximNL889Ls0jar
yUTcj8KDUDQ46WMLASP0Q2/KKjssWpIGBsitun2fhNE8k8KvZTW7j4SdDxqBiFb1
RowePLUjANBeERNHxC+VS9liFA3SETYYmOKn8KfX20IopDcMmeTdiultgmKY0b5N
YKimg3ut7M5jt44n5x1F/bWHI4wTYEOMbGhuYWbpw/vtXPIQDyXkbp37sdCAEoQI
9873uXL8hgGnNBun35xAg3a5tUyJOCcLZsEkX7N3fa/fZKsHazLLXZjmJlXSkFz7
j/+XN3h1nBl9/1r24ejDlFYYjtOWyGwg9/04eWx9BRWjXGZwGXZmgC5bmPpsBVVk
Ii5Xf9bTOyMU+IqS8f/yHsjJIVfb75GzsPsI2ohIDBxdb/QcN+YcZRHbre63M/+k
d1TvLwbYoUyweIaIgvWXp9z9nTIETCDq1AKYupjl73S1J2oy0+CaDUUV6Im0dylt
6iz7PK1/MTjRJ4T4U/ZIH8Xmv7isOOIy4Nrwb8mA5/QsO1TZjXkCWk8PtfOTMqaI
6UxVN1NOQO7YK3ehAjyxgsQc/oiO+I8Kvt796GDmrARYDudFgStCPIM=
-----END CERTIFICATE-----
