Certificate:
    Data:
        Version: 3 (0x2)
        Serial Number: 10 (0xa)
        Signature Algorithm: sha256WithRSAEncryption
        Issuer: C=US, ST=Maryland, L=Baltimore, O=DFSP Server CA, OU=Payments, CN=dfspserverca/emailAddress=dfspserverca@example.com
        Validity
            Not Before: Feb 14 02:03:23 2024 GMT
            Not After : Nov 10 02:03:23 2026 GMT
        Subject: CN=payer-sdk-scheme-adapter-api-svc
        Subject Public Key Info:
            Public Key Algorithm: rsaEncryption
                Public-Key: (4096 bit)
                Modulus:
                    00:9e:31:7a:c9:98:4f:a2:74:78:ff:be:5c:ed:37:
                    d3:49:c2:9e:db:00:51:5e:6d:bf:28:d7:77:13:6a:
                    5f:ba:77:f1:40:9d:7a:07:69:1d:81:52:64:e7:27:
                    bb:dc:ce:c0:8d:a5:38:1d:6f:41:74:33:12:78:80:
                    28:be:b0:21:f2:6a:75:79:dc:2d:b0:4b:54:b4:82:
                    19:68:bc:65:fa:ff:20:a6:a6:09:c1:05:e0:c0:f0:
                    47:76:97:eb:27:81:ba:8a:11:0f:01:3d:6d:e7:74:
                    15:f7:71:c7:39:73:98:4d:f1:ad:43:dd:b9:be:91:
                    1b:17:98:fe:6a:5c:d9:51:89:75:41:51:ab:b6:c8:
                    0b:e0:7e:fa:6a:09:ac:0f:f3:bd:65:f1:2b:9c:75:
                    00:9f:e1:0d:24:7d:ed:68:54:7e:cd:55:80:11:65:
                    64:72:73:43:d1:06:83:f8:99:4a:a3:a0:80:e1:60:
                    d7:59:14:45:fa:e3:93:74:79:37:17:40:5c:73:8a:
                    b2:44:cf:5e:8c:ba:bf:55:cd:8d:cb:3a:07:27:56:
                    7f:ee:d2:fa:25:ca:6e:f4:cb:2c:a0:d8:fe:97:96:
                    62:4c:a0:72:c0:2d:ef:d3:6b:2e:8a:95:7b:11:cd:
                    00:00:bd:5a:41:13:26:95:4b:0e:81:a3:ba:75:9a:
                    00:9f:df:2a:86:f9:4f:f9:b8:48:79:bf:20:8e:b4:
                    19:52:e3:7e:97:55:8f:fd:8d:f2:25:c3:0c:ed:2a:
                    c9:5a:f7:d4:0d:32:ee:7a:24:22:49:6a:ce:17:2a:
                    1e:9b:ec:77:43:22:27:cf:d2:18:7b:7b:6b:23:0c:
                    35:02:80:b3:96:0e:ee:e0:7e:97:b5:ed:09:29:4b:
                    9a:07:a2:62:cf:26:2f:28:ff:b3:f3:8f:98:46:4a:
                    c0:8e:c3:0a:67:7a:0b:b0:0c:cd:3c:fe:73:f6:89:
                    64:a7:ea:97:ad:37:6d:d7:10:b2:60:cf:e8:6e:de:
                    1e:11:3e:ce:8d:4a:b8:bf:89:3f:72:45:5e:06:bd:
                    c1:27:b0:19:5e:37:f6:6a:52:dd:93:58:6d:d3:fa:
                    c7:99:bd:ab:ca:15:91:0e:12:24:29:e6:2f:85:10:
                    8f:3d:42:53:6f:1f:f2:10:d8:39:31:bc:bb:16:0e:
                    12:28:d7:39:6e:88:5f:8d:f9:c9:7f:41:3f:80:85:
                    82:fd:be:73:0a:64:2f:8d:7f:ac:1c:d6:46:52:6f:
                    76:28:f7:69:95:cc:2d:ee:8c:a7:5f:b0:29:a3:ad:
                    dc:9b:a9:72:c3:5b:a3:92:04:61:01:58:37:d5:9d:
                    e1:c1:3a:9c:fd:d7:1d:82:65:a4:b2:b4:73:76:e8:
                    d2:45:e3
                Exponent: 65537 (0x10001)
        X509v3 extensions:
            X509v3 Subject Key Identifier: 
                B3:DE:53:76:45:23:BB:9C:91:37:5A:0C:E4:01:FF:F1:2E:E7:79:C8
            X509v3 Authority Key Identifier: 
                43:BB:72:B3:89:D5:84:5B:B0:58:1D:D2:D1:E4:36:83:8F:1A:6A:48
            X509v3 Basic Constraints: 
                CA:FALSE
            X509v3 Key Usage: 
                Digital Signature, Key Encipherment
            X509v3 Extended Key Usage: 
                TLS Web Server Authentication, TLS Web Client Authentication, Code Signing, E-mail Protection
            X509v3 Subject Alternative Name: 
                DNS:payer-sdk-scheme-adapter-api-svc
            Netscape Comment: 
                OpenSSL Generated Certificate
    Signature Algorithm: sha256WithRSAEncryption
    Signature Value:
        29:ef:16:bd:06:17:fc:04:04:f4:6c:94:28:db:db:de:a7:e6:
        7c:19:13:84:ab:6f:60:eb:e9:6d:a3:38:05:7f:5c:f2:5c:f2:
        d6:4e:8a:c8:c4:e5:11:cd:5c:38:99:4b:48:08:41:0d:69:5f:
        63:9b:63:de:ce:a6:8a:b8:fa:fa:d0:6f:f8:c0:16:23:1f:ce:
        3c:b2:82:90:64:d9:45:40:87:fb:19:86:48:29:9b:b0:a2:f6:
        73:ba:f8:fc:03:4d:90:51:20:87:88:d6:b6:a1:aa:4d:2c:cf:
        e5:f3:98:61:02:94:75:0c:f5:63:5f:33:a0:06:0e:f7:75:62:
        7f:88:4c:3a:25:64:58:44:cd:88:ae:c7:70:e2:0a:d3:63:13:
        39:7a:e8:0e:59:bd:f4:6b:b2:c6:2c:55:09:cc:9f:ea:fb:35:
        57:00:81:7b:c7:fd:7c:a6:c1:d4:de:16:42:66:97:53:aa:bd:
        4d:23:b1:f3:47:00:6c:4d:bb:34:9b:6b:9f:cd:f7:db:84:c7:
        82:15:88:7c:9d:cf:54:aa:6c:4e:4f:9e:00:0d:75:b4:30:b7:
        23:82:cb:05:7f:60:f6:83:ba:64:ea:3c:82:6c:9c:55:2a:ea:
        07:3f:20:de:02:53:9e:51:52:7a:70:8a:aa:86:24:6d:90:5f:
        b0:60:eb:c8:c1:76:4c:05:0a:87:98:d4:25:e4:1a:3f:9e:38:
        a8:a0:2c:ce:69:c3:a7:d3:7d:2c:0b:c0:83:34:13:84:f4:2e:
        05:6b:9e:c4:46:d5:64:3f:72:6c:cf:85:43:f5:8e:6a:d2:7c:
        af:ae:a6:38:6d:74:e3:46:84:b4:23:ac:3d:42:e7:06:9e:39:
        0b:85:13:c1:29:dc:e3:96:fc:6f:88:6e:54:26:62:ef:50:4d:
        a5:36:c6:a2:2e:c0:7e:52:ca:11:49:d8:9a:ff:8d:f3:1f:bd:
        85:8b:de:b0:ee:61:8e:c1:2c:31:ed:fe:0b:9e:4b:93:fc:4b:
        81:38:bc:67:36:b0:7e:94:28:24:9b:25:d5:6e:17:0a:71:5a:
        0d:19:10:2c:75:38:a2:21:b6:a6:58:1e:b9:de:be:e7:4f:c0:
        84:dd:6b:a8:4e:5a:4c:26:d8:84:d4:55:ad:aa:8a:20:92:dc:
        eb:cd:0f:48:4b:16:bf:07:8a:fa:d6:73:47:23:bc:ea:30:df:
        ec:f6:d7:83:50:d5:09:71:f9:d9:23:7d:44:ae:41:7e:9b:20:
        6e:5a:fb:4f:6a:22:f1:b6:bf:a1:6b:b1:88:73:76:ea:93:2b:
        9c:e0:d6:20:46:11:4f:b9:e5:19:b4:a6:d4:b3:a7:62:c5:16:
        47:7b:c4:eb:07:c8:76:8c
-----BEGIN CERTIFICATE-----
MIIGMTCCBBmgAwIBAgIBCjANBgkqhkiG9w0BAQsFADCBoDELMAkGA1UEBhMCVVMx
ETAPBgNVBAgMCE1hcnlsYW5kMRIwEAYDVQQHDAlCYWx0aW1vcmUxFzAVBgNVBAoM
DkRGU1AgU2VydmVyIENBMREwDwYDVQQLDAhQYXltZW50czEVMBMGA1UEAwwMZGZz
cHNlcnZlcmNhMScwJQYJKoZIhvcNAQkBFhhkZnNwc2VydmVyY2FAZXhhbXBsZS5j
b20wHhcNMjQwMjE0MDIwMzIzWhcNMjYxMTEwMDIwMzIzWjArMSkwJwYDVQQDDCBw
YXllci1zZGstc2NoZW1lLWFkYXB0ZXItYXBpLXN2YzCCAiIwDQYJKoZIhvcNAQEB
BQADggIPADCCAgoCggIBAJ4xesmYT6J0eP++XO0300nCntsAUV5tvyjXdxNqX7p3
8UCdegdpHYFSZOcnu9zOwI2lOB1vQXQzEniAKL6wIfJqdXncLbBLVLSCGWi8Zfr/
IKamCcEF4MDwR3aX6yeBuooRDwE9bed0FfdxxzlzmE3xrUPdub6RGxeY/mpc2VGJ
dUFRq7bIC+B++moJrA/zvWXxK5x1AJ/hDSR97WhUfs1VgBFlZHJzQ9EGg/iZSqOg
gOFg11kURfrjk3R5NxdAXHOKskTPXoy6v1XNjcs6BydWf+7S+iXKbvTLLKDY/peW
YkygcsAt79NrLoqVexHNAAC9WkETJpVLDoGjunWaAJ/fKob5T/m4SHm/II60GVLj
fpdVj/2N8iXDDO0qyVr31A0y7nokIklqzhcqHpvsd0MiJ8/SGHt7ayMMNQKAs5YO
7uB+l7XtCSlLmgeiYs8mLyj/s/OPmEZKwI7DCmd6C7AMzTz+c/aJZKfql603bdcQ
smDP6G7eHhE+zo1KuL+JP3JFXga9wSewGV439mpS3ZNYbdP6x5m9q8oVkQ4SJCnm
L4UQjz1CU28f8hDYOTG8uxYOEijXOW6IX435yX9BP4CFgv2+cwpkL41/rBzWRlJv
dij3aZXMLe6Mp1+wKaOt3JupcsNbo5IEYQFYN9Wd4cE6nP3XHYJlpLK0c3bo0kXj
AgMBAAGjgekwgeYwHQYDVR0OBBYEFLPeU3ZFI7uckTdaDOQB//Eu53nIMB8GA1Ud
IwQYMBaAFEO7crOJ1YRbsFgd0tHkNoOPGmpIMAkGA1UdEwQCMAAwCwYDVR0PBAQD
AgWgMDEGA1UdJQQqMCgGCCsGAQUFBwMBBggrBgEFBQcDAgYIKwYBBQUHAwMGCCsG
AQUFBwMEMCsGA1UdEQQkMCKCIHBheWVyLXNkay1zY2hlbWUtYWRhcHRlci1hcGkt
c3ZjMCwGCWCGSAGG+EIBDQQfFh1PcGVuU1NMIEdlbmVyYXRlZCBDZXJ0aWZpY2F0
ZTANBgkqhkiG9w0BAQsFAAOCAgEAKe8WvQYX/AQE9GyUKNvb3qfmfBkThKtvYOvp
baM4BX9c8lzy1k6KyMTlEc1cOJlLSAhBDWlfY5tj3s6mirj6+tBv+MAWIx/OPLKC
kGTZRUCH+xmGSCmbsKL2c7r4/ANNkFEgh4jWtqGqTSzP5fOYYQKUdQz1Y18zoAYO
93Vif4hMOiVkWETNiK7HcOIK02MTOXroDlm99GuyxixVCcyf6vs1VwCBe8f9fKbB
1N4WQmaXU6q9TSOx80cAbE27NJtrn83324THghWIfJ3PVKpsTk+eAA11tDC3I4LL
BX9g9oO6ZOo8gmycVSrqBz8g3gJTnlFSenCKqoYkbZBfsGDryMF2TAUKh5jUJeQa
P544qKAszmnDp9N9LAvAgzQThPQuBWuexEbVZD9ybM+FQ/WOatJ8r66mOG1040aE
tCOsPULnBp45C4UTwSnc45b8b4huVCZi71BNpTbGoi7AflLKEUnYmv+N8x+9hYve
sO5hjsEsMe3+C55Lk/xLgTi8ZzawfpQoJJsl1W4XCnFaDRkQLHU4oiG2plgeud6+
50/AhN1rqE5aTCbYhNRVraqKIJLc680PSEsWvweK+tZzRyO86jDf7PbXg1DVCXH5
2SN9RK5Bfpsgblr7T2oi8ba/oWuxiHN26pMrnODWIEYRT7nlGbSm1LOnYsUWR3vE
6wfIdow=
-----END CERTIFICATE-----
