Certificate:
    Data:
        Version: 3 (0x2)
        Serial Number: 10 (0xa)
        Signature Algorithm: sha256WithRSAEncryption
        Issuer: C=US, ST=Maryland, L=Baltimore, O=DFSP Client CA, OU=Payments, CN=dfspclientca/emailAddress=dfspserverca@example.com
        Validity
            Not Before: Feb 14 02:03:45 2024 GMT
            Not After : Nov 10 02:03:45 2026 GMT
        Subject: C=US, ST=MD, L=Baltimore, O=DFSP Client, OU=Payments, CN=dfspclient
        Subject Public Key Info:
            Public Key Algorithm: rsaEncryption
                Public-Key: (4096 bit)
                Modulus:
                    00:b4:eb:51:3b:68:ae:f2:eb:b9:c1:9d:39:ab:2a:
                    32:74:c8:93:07:ed:ad:5d:5e:8c:8f:8f:e6:c4:69:
                    7f:e6:bf:df:17:56:3c:00:93:73:de:a7:29:e6:36:
                    bf:84:60:dd:98:56:f8:16:db:5f:a0:64:08:f8:a8:
                    c9:dc:c3:e4:98:9a:0a:40:17:0d:90:13:26:6a:45:
                    9e:2f:96:d5:87:30:cf:3b:97:74:78:33:ea:ba:7f:
                    1f:25:3a:be:09:04:05:b8:ef:4f:58:94:ac:8d:e2:
                    1c:64:4b:ab:ca:ec:50:14:48:c6:87:42:f9:21:75:
                    c6:b1:de:b2:0d:88:70:2a:58:74:4c:3b:ea:b6:8d:
                    ab:a5:8d:f2:a4:d1:f7:41:00:0b:39:15:40:cf:39:
                    02:de:74:14:84:39:5d:84:9e:e5:c9:0d:49:36:48:
                    bf:ac:cf:78:12:fe:0b:70:06:2a:e6:6f:d7:8f:b8:
                    8b:f9:7c:aa:0f:d2:5d:23:d3:42:55:8e:ee:84:1d:
                    51:b6:40:35:8c:ac:52:a9:71:fb:06:e2:2e:72:88:
                    99:8a:50:1b:0a:61:15:38:c8:80:37:97:b9:7c:b8:
                    fe:c5:17:85:16:13:f1:8a:84:22:e0:d9:79:05:b5:
                    2b:21:fd:ec:b8:8c:52:59:e0:37:0f:22:a4:b8:9b:
                    b9:8c:5d:73:93:36:b1:40:b8:c1:06:42:22:4d:f8:
                    42:ac:c8:7b:ac:52:9c:36:2e:b8:e0:9f:10:75:66:
                    84:12:66:58:c0:60:6e:cb:4f:17:52:d5:31:7a:98:
                    de:e6:b9:5d:33:20:34:a4:5a:d9:cd:3d:70:42:2c:
                    d4:a3:96:59:a5:40:1a:2e:5c:a5:9f:b1:76:12:ca:
                    98:6c:c3:74:4c:05:29:b1:f3:0e:00:f4:3a:55:2a:
                    79:49:1a:42:1a:89:d8:7b:bb:f0:24:7c:76:9a:ee:
                    44:a6:34:7d:2e:6e:19:29:cd:32:38:85:b1:26:d1:
                    62:70:a8:82:64:99:2e:4e:63:54:d4:60:5f:71:1a:
                    8c:51:e4:19:8f:0a:c7:86:da:ce:79:a4:f3:db:e8:
                    c2:e1:67:af:b2:a4:f6:36:9c:18:83:b3:b7:c5:c4:
                    71:8e:e7:61:74:4f:ac:0f:76:9c:54:f9:2e:71:85:
                    22:df:4f:e4:ba:43:9f:c2:87:c3:df:1a:c8:40:00:
                    7b:58:18:57:65:80:45:7c:e6:d4:b7:7a:2f:d1:17:
                    6d:dd:79:1c:dc:cd:ae:4c:e2:db:a7:f9:88:72:28:
                    e2:3d:46:b5:d2:f8:6a:36:08:55:d0:db:eb:0c:64:
                    e3:92:49:5c:fe:a3:f5:3b:d8:53:39:47:9e:e3:9d:
                    ba:2b:df
                Exponent: 65537 (0x10001)
        X509v3 extensions:
            X509v3 Subject Key Identifier: 
                F3:51:9C:18:8F:A9:FB:B5:A4:FB:27:29:34:51:5A:43:0F:2A:8F:53
            X509v3 Authority Key Identifier: 
                1D:1B:61:3D:E6:01:AB:E6:BB:45:75:32:08:46:7C:6B:EA:26:90:37
            X509v3 Basic Constraints: 
                CA:FALSE
            X509v3 Key Usage: 
                Digital Signature, Key Encipherment
            X509v3 Extended Key Usage: 
                TLS Web Server Authentication, TLS Web Client Authentication, Code Signing, E-mail Protection
            X509v3 Subject Alternative Name: 
                DNS:localhost
            Netscape Comment: 
                OpenSSL Generated Certificate
    Signature Algorithm: sha256WithRSAEncryption
    Signature Value:
        13:30:0a:2c:92:11:ab:48:ae:44:4b:da:54:59:2c:90:73:a1:
        71:ed:00:d8:ad:27:86:65:0c:f7:d2:95:d6:7c:85:06:25:51:
        a0:74:6e:17:af:cd:88:d6:ec:58:a5:00:f8:4d:d5:dc:57:5c:
        e6:d9:0d:75:83:9a:be:5a:bf:c3:18:f6:5a:84:6d:d8:14:8e:
        1f:31:fb:c8:ba:0d:35:51:af:89:a6:62:b8:be:d2:aa:1d:75:
        63:42:3f:89:f8:59:47:30:bc:f9:fd:35:33:92:1d:09:b7:74:
        03:0e:25:d6:80:a2:68:a8:6c:d4:3b:26:b3:cf:28:c7:ca:79:
        25:a6:6a:22:4d:78:70:53:68:47:c8:84:21:bd:ed:82:d4:8b:
        38:df:70:d8:dc:aa:dc:e2:bd:8d:c8:ce:57:f8:10:ee:d6:bc:
        81:b9:b4:07:61:47:53:79:53:c2:c0:48:13:74:9b:e7:51:aa:
        97:19:49:0e:d8:57:77:9b:0b:6d:52:c9:9e:cd:54:c7:55:23:
        21:e2:4f:c6:f0:fd:1d:8e:06:cd:03:3b:79:18:53:71:3a:fa:
        b6:47:93:74:cb:fc:13:88:cb:72:82:84:bc:e1:8c:52:9f:38:
        7e:6f:df:74:ac:79:81:31:96:c3:52:46:49:e0:9d:15:9c:92:
        dc:67:d6:87:33:33:95:89:75:af:7f:cb:7a:79:01:39:27:95:
        51:15:ca:0a:39:08:0d:87:1c:ba:da:29:17:d6:69:2c:d1:97:
        3a:3a:02:ff:30:72:11:39:d8:ad:ce:50:46:62:11:30:94:af:
        d6:09:0b:10:7a:28:e9:a7:49:f6:3a:c1:53:cf:a6:c8:15:58:
        34:c5:33:c2:3c:54:0c:98:c6:8c:2f:71:ec:a7:9a:6d:af:c3:
        af:0a:00:0a:09:f9:9f:41:9d:e6:b5:ca:79:e9:ac:a2:b7:01:
        b4:82:91:2c:c1:49:37:40:a5:ec:a2:72:5f:30:47:17:c5:88:
        11:5b:ab:27:6a:94:28:f5:e8:62:01:ab:23:bf:4c:c8:9a:c0:
        61:b5:17:9c:5e:58:8e:96:d4:30:02:c7:11:e1:c1:3c:e0:5f:
        56:46:21:41:30:16:67:00:26:3d:34:4e:22:74:2c:a9:0c:cb:
        dc:05:ba:19:56:b7:1b:55:8d:14:ca:5a:0e:7d:9b:0f:c9:c1:
        b5:ae:42:f9:06:63:7e:9b:53:f1:05:67:c3:40:7e:f2:0e:bf:
        1b:c3:71:f3:13:a8:05:a3:f2:36:d4:35:76:39:f9:2d:8e:43:
        66:d5:0a:6b:35:d8:0f:63:a3:e7:90:5e:fe:00:16:4a:76:a0:
        df:33:b0:62:26:f2:3a:8f
-----BEGIN CERTIFICATE-----
MIIGWzCCBEOgAwIBAgIBCjANBgkqhkiG9w0BAQsFADCBoDELMAkGA1UEBhMCVVMx
ETAPBgNVBAgMCE1hcnlsYW5kMRIwEAYDVQQHDAlCYWx0aW1vcmUxFzAVBgNVBAoM
DkRGU1AgQ2xpZW50IENBMREwDwYDVQQLDAhQYXltZW50czEVMBMGA1UEAwwMZGZz
cGNsaWVudGNhMScwJQYJKoZIhvcNAQkBFhhkZnNwc2VydmVyY2FAZXhhbXBsZS5j
b20wHhcNMjQwMjE0MDIwMzQ1WhcNMjYxMTEwMDIwMzQ1WjBsMQswCQYDVQQGEwJV
UzELMAkGA1UECAwCTUQxEjAQBgNVBAcMCUJhbHRpbW9yZTEUMBIGA1UECgwLREZT
UCBDbGllbnQxETAPBgNVBAsMCFBheW1lbnRzMRMwEQYDVQQDDApkZnNwY2xpZW50
MIICIjANBgkqhkiG9w0BAQEFAAOCAg8AMIICCgKCAgEAtOtRO2iu8uu5wZ05qyoy
dMiTB+2tXV6Mj4/mxGl/5r/fF1Y8AJNz3qcp5ja/hGDdmFb4FttfoGQI+KjJ3MPk
mJoKQBcNkBMmakWeL5bVhzDPO5d0eDPqun8fJTq+CQQFuO9PWJSsjeIcZEuryuxQ
FEjGh0L5IXXGsd6yDYhwKlh0TDvqto2rpY3ypNH3QQALORVAzzkC3nQUhDldhJ7l
yQ1JNki/rM94Ev4LcAYq5m/Xj7iL+XyqD9JdI9NCVY7uhB1RtkA1jKxSqXH7BuIu
coiZilAbCmEVOMiAN5e5fLj+xReFFhPxioQi4Nl5BbUrIf3suIxSWeA3DyKkuJu5
jF1zkzaxQLjBBkIiTfhCrMh7rFKcNi644J8QdWaEEmZYwGBuy08XUtUxepje5rld
MyA0pFrZzT1wQizUo5ZZpUAaLlyln7F2EsqYbMN0TAUpsfMOAPQ6VSp5SRpCGonY
e7vwJHx2mu5EpjR9Lm4ZKc0yOIWxJtFicKiCZJkuTmNU1GBfcRqMUeQZjwrHhtrO
eaTz2+jC4WevsqT2NpwYg7O3xcRxjudhdE+sD3acVPkucYUi30/kukOfwofD3xrI
QAB7WBhXZYBFfObUt3ov0Rdt3Xkc3M2uTOLbp/mIcijiPUa10vhqNghV0NvrDGTj
kklc/qP1O9hTOUee4526K98CAwEAAaOB0jCBzzAdBgNVHQ4EFgQU81GcGI+p+7Wk
+ycpNFFaQw8qj1MwHwYDVR0jBBgwFoAUHRthPeYBq+a7RXUyCEZ8a+omkDcwCQYD
VR0TBAIwADALBgNVHQ8EBAMCBaAwMQYDVR0lBCowKAYIKwYBBQUHAwEGCCsGAQUF
BwMCBggrBgEFBQcDAwYIKwYBBQUHAwQwFAYDVR0RBA0wC4IJbG9jYWxob3N0MCwG
CWCGSAGG+EIBDQQfFh1PcGVuU1NMIEdlbmVyYXRlZCBDZXJ0aWZpY2F0ZTANBgkq
hkiG9w0BAQsFAAOCAgEAEzAKLJIRq0iuREvaVFkskHOhce0A2K0nhmUM99KV1nyF
BiVRoHRuF6/NiNbsWKUA+E3V3Fdc5tkNdYOavlq/wxj2WoRt2BSOHzH7yLoNNVGv
iaZiuL7Sqh11Y0I/ifhZRzC8+f01M5IdCbd0Aw4l1oCiaKhs1Dsms88ox8p5JaZq
Ik14cFNoR8iEIb3tgtSLON9w2Nyq3OK9jcjOV/gQ7ta8gbm0B2FHU3lTwsBIE3Sb
51GqlxlJDthXd5sLbVLJns1Ux1UjIeJPxvD9HY4GzQM7eRhTcTr6tkeTdMv8E4jL
coKEvOGMUp84fm/fdKx5gTGWw1JGSeCdFZyS3GfWhzMzlYl1r3/LenkBOSeVURXK
CjkIDYccutopF9ZpLNGXOjoC/zByETnYrc5QRmIRMJSv1gkLEHoo6adJ9jrBU8+m
yBVYNMUzwjxUDJjGjC9x7Keaba/DrwoACgn5n0Gd5rXKeemsorcBtIKRLMFJN0Cl
7KJyXzBHF8WIEVurJ2qUKPXoYgGrI79MyJrAYbUXnF5YjpbUMALHEeHBPOBfVkYh
QTAWZwAmPTROInQsqQzL3AW6GVa3G1WNFMpaDn2bD8nBta5C+QZjfptT8QVnw0B+
8g6/G8Nx8xOoBaPyNtQ1djn5LY5DZtUKazXYD2Oj55Be/gAWSnag3zOwYibyOo8=
-----END CERTIFICATE-----
