Certificate:
    Data:
        Version: 3 (0x2)
        Serial Number: 1 (0x1)
        Signature Algorithm: sha256WithRSAEncryption
        Issuer: C=US, ST=Maryland, L=Baltimore, O=DFSP Client CA, OU=Payments, CN=dfspclientca/emailAddress=dfspserverca@example.com
        Validity
            Not Before: Feb  8 17:56:00 2024 GMT
            Not After : Nov  4 17:56:00 2026 GMT
        Subject: C=US, ST=MD, L=Baltimore, O=DFSP Client, OU=Payments, CN=dfspclient
        Subject Public Key Info:
            Public Key Algorithm: rsaEncryption
                Public-Key: (4096 bit)
                Modulus:
                    00:ef:96:be:af:42:31:f0:ae:db:24:bf:98:f8:e0:
                    8d:41:88:38:f3:04:ee:d0:1b:b4:fd:63:46:78:00:
                    be:1d:1d:43:d5:fd:cc:6d:5e:b0:6e:ad:db:94:05:
                    1b:b0:a6:96:74:ce:81:5f:f1:85:0a:96:6f:7b:4d:
                    4f:06:76:12:38:4b:4d:74:a8:e5:d6:57:37:06:67:
                    9f:38:45:dc:2e:12:9d:1b:2e:e5:ce:20:65:7d:94:
                    59:1d:92:bf:f2:9b:b8:e7:87:f5:de:4d:14:41:7f:
                    e0:6e:d8:27:6d:2d:15:b1:06:1f:96:d7:51:84:74:
                    e9:05:3d:ff:63:60:0d:f7:6b:fc:41:9b:3f:6c:e6:
                    c2:9e:dd:2c:81:15:62:6f:d4:4f:5c:e4:b2:a1:7b:
                    0e:c3:74:97:11:a3:5a:10:11:94:3a:a8:74:04:b1:
                    d8:b9:bd:99:29:20:ce:fc:03:38:69:30:25:e2:38:
                    08:56:3f:86:62:0c:23:b8:83:66:7a:7e:f3:5f:a6:
                    58:cf:39:ab:fe:e9:9c:af:07:df:3a:47:4c:d8:01:
                    fe:f4:42:5a:f2:15:9e:3f:7b:28:80:98:ae:0a:e2:
                    ae:f1:7c:58:84:c9:1c:6b:19:26:0e:bb:78:56:4d:
                    62:d1:09:b1:18:ff:51:f0:9f:c6:9d:c6:74:db:f7:
                    6c:0e:c5:7e:d3:86:a3:dd:8c:fd:23:c6:73:93:46:
                    d4:6d:55:df:fb:1e:09:c2:64:c4:67:df:5b:7b:3f:
                    de:df:72:14:f4:fe:46:af:2c:eb:49:48:24:bd:e5:
                    37:1d:67:d0:82:ed:ff:d2:93:a0:52:cb:8b:81:22:
                    f5:1d:3a:d3:85:00:46:44:0f:a9:00:22:b9:f1:24:
                    13:c9:63:3f:97:2e:6a:cb:e4:93:ce:a9:67:1d:b6:
                    1f:80:0e:ff:3b:9f:89:bd:5c:c0:d9:71:ef:18:d4:
                    f6:e3:64:51:75:5d:1a:12:ad:23:a6:83:0d:8e:c1:
                    ff:e8:09:f9:7e:03:af:72:46:de:05:a7:d2:51:01:
                    e1:85:9a:b9:c7:02:fb:5f:0b:dd:f4:5e:3c:42:a4:
                    7d:8c:9b:fd:e7:33:7a:30:ef:dd:75:81:75:bb:33:
                    0b:6d:bb:fa:55:13:8e:bd:b8:09:cc:32:5a:cd:d3:
                    87:0a:da:5f:73:d8:1f:d7:79:16:25:1a:d6:05:7e:
                    84:75:03:61:d0:58:5e:8f:54:d6:58:6b:c7:01:73:
                    0e:0b:bf:b8:dc:b2:c3:4f:ba:4e:ff:19:3d:23:fc:
                    06:52:a8:6f:a2:ea:bb:39:9e:61:fc:10:01:a7:1a:
                    de:f2:e4:96:ca:80:18:c7:d5:ed:19:25:e6:25:13:
                    55:fe:43
                Exponent: 65537 (0x10001)
        X509v3 extensions:
            X509v3 Subject Key Identifier: 
                30:12:90:E3:26:95:9E:2B:3A:E9:29:89:02:79:38:04:52:0F:2F:D1
            X509v3 Authority Key Identifier: 
                02:93:2A:F7:D5:74:50:36:63:35:08:08:81:8F:08:DD:EB:AC:9F:79
            X509v3 Basic Constraints: 
                CA:FALSE
            X509v3 Key Usage: 
                Digital Signature, Key Encipherment
            X509v3 Extended Key Usage: 
                TLS Web Server Authentication, TLS Web Client Authentication, Code Signing, E-mail Protection
            X509v3 Subject Alternative Name: 
                DNS:localhost
            Netscape Comment: 
                OpenSSL Generated Certificate
    Signature Algorithm: sha256WithRSAEncryption
    Signature Value:
        65:20:14:46:43:01:41:b6:49:59:67:10:4d:fe:1a:ca:15:75:
        a0:bf:18:b9:c8:6c:36:af:aa:9b:a5:fb:01:e7:4f:32:68:95:
        22:26:da:8b:f4:5f:86:35:53:ef:72:33:ad:2d:f3:f3:6d:e4:
        9d:e8:1b:3b:81:5c:8e:51:21:78:5d:f3:19:5e:48:df:85:b1:
        a5:cb:36:fa:4a:19:fd:8d:30:cf:57:fd:b1:18:10:b3:3a:ae:
        94:77:c4:23:0c:ce:18:ce:e2:a1:06:8b:2b:14:19:52:d6:f4:
        48:91:ce:2e:9e:6a:47:c1:df:73:1a:15:53:cb:51:f9:9f:f8:
        c2:ce:c8:39:2a:2e:cf:93:ce:0e:c2:a4:d8:a9:a2:ae:1f:c2:
        71:21:76:56:8e:2e:d1:09:a9:93:75:44:45:cd:0c:14:6d:92:
        a1:51:16:29:29:7b:ec:5b:a0:57:bf:16:ff:78:75:b1:d8:cb:
        fd:48:63:e3:73:37:cd:e3:11:58:df:d6:30:03:18:9b:55:3e:
        20:58:09:f4:2d:7f:56:f0:bc:7d:8d:58:34:80:61:42:09:99:
        b7:bd:70:d2:35:e3:bc:b3:78:3f:3d:d4:40:0e:18:af:e4:5d:
        67:e6:6a:4b:02:cf:e7:4e:45:82:73:77:86:6f:0e:2e:33:84:
        7e:79:dc:a3:13:50:5a:2e:22:9d:c0:0a:d2:4e:26:c4:63:9f:
        3e:b0:82:26:74:cd:6a:54:df:91:76:7c:fe:98:21:cc:c6:b3:
        32:d9:1b:52:be:de:e4:b1:ea:59:91:68:82:c4:90:00:09:62:
        51:58:a4:25:8d:0f:8b:c9:47:fc:c9:2f:1c:69:f9:f0:c1:94:
        39:de:6b:8a:ea:7b:0e:95:72:4f:55:32:46:a5:74:74:bd:f8:
        a6:54:60:29:22:5f:d6:b1:b1:b5:85:8f:96:2f:ed:40:6a:ad:
        fe:c6:ab:76:74:ef:29:53:07:c9:e1:ec:d1:af:12:66:c1:2c:
        4a:76:23:8b:50:48:c1:8f:57:96:1c:f6:cc:c2:71:02:01:77:
        24:91:d0:ca:2e:0b:45:f0:e7:32:00:5f:ff:0f:5e:da:8d:19:
        f9:99:9f:61:68:ff:b7:f0:6b:44:3b:e2:06:e2:06:86:41:ba:
        71:81:d4:30:c4:78:c5:af:05:b2:31:1f:59:30:cd:cb:8d:41:
        be:90:b9:b1:ce:78:c9:d8:cc:5d:e4:f8:37:9e:40:f7:6c:c5:
        f0:a0:0a:87:8b:97:45:fc:18:6a:d7:a6:7f:bd:f8:04:6a:44:
        81:2d:6a:6b:93:d2:8a:9a:d4:00:e1:83:d1:38:0d:b9:8d:f3:
        77:d3:53:3b:37:fe:73:c7
-----BEGIN CERTIFICATE-----
MIIGWzCCBEOgAwIBAgIBATANBgkqhkiG9w0BAQsFADCBoDELMAkGA1UEBhMCVVMx
ETAPBgNVBAgMCE1hcnlsYW5kMRIwEAYDVQQHDAlCYWx0aW1vcmUxFzAVBgNVBAoM
DkRGU1AgQ2xpZW50IENBMREwDwYDVQQLDAhQYXltZW50czEVMBMGA1UEAwwMZGZz
cGNsaWVudGNhMScwJQYJKoZIhvcNAQkBFhhkZnNwc2VydmVyY2FAZXhhbXBsZS5j
b20wHhcNMjQwMjA4MTc1NjAwWhcNMjYxMTA0MTc1NjAwWjBsMQswCQYDVQQGEwJV
UzELMAkGA1UECAwCTUQxEjAQBgNVBAcMCUJhbHRpbW9yZTEUMBIGA1UECgwLREZT
UCBDbGllbnQxETAPBgNVBAsMCFBheW1lbnRzMRMwEQYDVQQDDApkZnNwY2xpZW50
MIICIjANBgkqhkiG9w0BAQEFAAOCAg8AMIICCgKCAgEA75a+r0Ix8K7bJL+Y+OCN
QYg48wTu0Bu0/WNGeAC+HR1D1f3MbV6wbq3blAUbsKaWdM6BX/GFCpZve01PBnYS
OEtNdKjl1lc3BmefOEXcLhKdGy7lziBlfZRZHZK/8pu454f13k0UQX/gbtgnbS0V
sQYfltdRhHTpBT3/Y2AN92v8QZs/bObCnt0sgRVib9RPXOSyoXsOw3SXEaNaEBGU
Oqh0BLHYub2ZKSDO/AM4aTAl4jgIVj+GYgwjuINmen7zX6ZYzzmr/umcrwffOkdM
2AH+9EJa8hWeP3sogJiuCuKu8XxYhMkcaxkmDrt4Vk1i0QmxGP9R8J/GncZ02/ds
DsV+04aj3Yz9I8Zzk0bUbVXf+x4JwmTEZ99bez/e33IU9P5GryzrSUgkveU3HWfQ
gu3/0pOgUsuLgSL1HTrThQBGRA+pACK58SQTyWM/ly5qy+STzqlnHbYfgA7/O5+J
vVzA2XHvGNT242RRdV0aEq0jpoMNjsH/6An5fgOvckbeBafSUQHhhZq5xwL7Xwvd
9F48QqR9jJv95zN6MO/ddYF1uzMLbbv6VROOvbgJzDJazdOHCtpfc9gf13kWJRrW
BX6EdQNh0Fhej1TWWGvHAXMOC7+43LLDT7pO/xk9I/wGUqhvouq7OZ5h/BABpxre
8uSWyoAYx9XtGSXmJRNV/kMCAwEAAaOB0jCBzzAdBgNVHQ4EFgQUMBKQ4yaVnis6
6SmJAnk4BFIPL9EwHwYDVR0jBBgwFoAUApMq99V0UDZjNQgIgY8I3eusn3kwCQYD
VR0TBAIwADALBgNVHQ8EBAMCBaAwMQYDVR0lBCowKAYIKwYBBQUHAwEGCCsGAQUF
BwMCBggrBgEFBQcDAwYIKwYBBQUHAwQwFAYDVR0RBA0wC4IJbG9jYWxob3N0MCwG
CWCGSAGG+EIBDQQfFh1PcGVuU1NMIEdlbmVyYXRlZCBDZXJ0aWZpY2F0ZTANBgkq
hkiG9w0BAQsFAAOCAgEAZSAURkMBQbZJWWcQTf4ayhV1oL8YuchsNq+qm6X7AedP
MmiVIibai/RfhjVT73IzrS3z823knegbO4FcjlEheF3zGV5I34Wxpcs2+koZ/Y0w
z1f9sRgQszqulHfEIwzOGM7ioQaLKxQZUtb0SJHOLp5qR8HfcxoVU8tR+Z/4ws7I
OSouz5PODsKk2Kmirh/CcSF2Vo4u0Qmpk3VERc0MFG2SoVEWKSl77FugV78W/3h1
sdjL/Uhj43M3zeMRWN/WMAMYm1U+IFgJ9C1/VvC8fY1YNIBhQgmZt71w0jXjvLN4
Pz3UQA4Yr+RdZ+ZqSwLP505FgnN3hm8OLjOEfnncoxNQWi4incAK0k4mxGOfPrCC
JnTNalTfkXZ8/pghzMazMtkbUr7e5LHqWZFogsSQAAliUVikJY0Pi8lH/MkvHGn5
8MGUOd5riup7DpVyT1UyRqV0dL34plRgKSJf1rGxtYWPli/tQGqt/sardnTvKVMH
yeHs0a8SZsEsSnYji1BIwY9Xlhz2zMJxAgF3JJHQyi4LRfDnMgBf/w9e2o0Z+Zmf
YWj/t/BrRDviBuIGhkG6cYHUMMR4xa8FsjEfWTDNy41BvpC5sc54ydjMXeT4N55A
92zF8KAKh4uXRfwYatemf734BGpEgS1qa5PSiprUAOGD0TgNuY3zd9NTOzf+c8c=
-----END CERTIFICATE-----
